
obj/scenario_1:     file format elf32-littlearm


Disassembly of section .text:

00100000 <__mmu_l0>:
  100000:	00017c0e 	andeq	r7, r1, lr, lsl #24
  100004:	00117c0e 	andseq	r7, r1, lr, lsl #24
  100008:	00217c0e 	eoreq	r7, r1, lr, lsl #24
  10000c:	00317c0e 	eorseq	r7, r1, lr, lsl #24
  100010:	00417c0e 	subeq	r7, r1, lr, lsl #24
  100014:	00517c0e 	subseq	r7, r1, lr, lsl #24
  100018:	00617c0e 	rsbeq	r7, r1, lr, lsl #24
  10001c:	00717c0e 	rsbseq	r7, r1, lr, lsl #24
  100020:	00817c0e 	addeq	r7, r1, lr, lsl #24
  100024:	00917c0e 	addseq	r7, r1, lr, lsl #24
  100028:	00a17c0e 	adceq	r7, r1, lr, lsl #24
  10002c:	00b17c0e 	adcseq	r7, r1, lr, lsl #24
  100030:	00c17c0e 	sbceq	r7, r1, lr, lsl #24
  100034:	00d17c0e 	sbcseq	r7, r1, lr, lsl #24
  100038:	00e17c0e 	rsceq	r7, r1, lr, lsl #24
  10003c:	00f17c0e 	rscseq	r7, r1, lr, lsl #24
  100040:	01017c0e 	tsteq	r1, lr, lsl #24
  100044:	01117c0e 	tsteq	r1, lr, lsl #24
  100048:	01217c0e 			; <UNDEFINED> instruction: 0x01217c0e
  10004c:	01317c0e 	teqeq	r1, lr, lsl #24
  100050:	01417c0e 	cmpeq	r1, lr, lsl #24
  100054:	01517c0e 	cmpeq	r1, lr, lsl #24
  100058:	01617c0e 	cmneq	r1, lr, lsl #24
  10005c:	01717c0e 	cmneq	r1, lr, lsl #24
  100060:	01817c0e 	orreq	r7, r1, lr, lsl #24
  100064:	01917c0e 	orrseq	r7, r1, lr, lsl #24
  100068:	01a17c0e 			; <UNDEFINED> instruction: 0x01a17c0e
  10006c:	01b17c0e 			; <UNDEFINED> instruction: 0x01b17c0e
  100070:	01c17c0e 	biceq	r7, r1, lr, lsl #24
  100074:	01d17c0e 	bicseq	r7, r1, lr, lsl #24
  100078:	01e17c0e 	mvneq	r7, lr, lsl #24
  10007c:	01f17c0e 	mvnseq	r7, lr, lsl #24
  100080:	02017c0e 	andeq	r7, r1, #3584	; 0xe00
  100084:	02117c0e 	andseq	r7, r1, #3584	; 0xe00
  100088:	02217c0e 	eoreq	r7, r1, #3584	; 0xe00
  10008c:	02317c0e 	eorseq	r7, r1, #3584	; 0xe00
  100090:	02417c0e 	subeq	r7, r1, #3584	; 0xe00
  100094:	02517c0e 	subseq	r7, r1, #3584	; 0xe00
  100098:	02617c0e 	rsbeq	r7, r1, #3584	; 0xe00
  10009c:	02717c0e 	rsbseq	r7, r1, #3584	; 0xe00
  1000a0:	02817c0e 	addeq	r7, r1, #3584	; 0xe00
  1000a4:	02917c0e 	addseq	r7, r1, #3584	; 0xe00
  1000a8:	02a17c0e 	adceq	r7, r1, #3584	; 0xe00
  1000ac:	02b17c0e 	adcseq	r7, r1, #3584	; 0xe00
  1000b0:	02c17c0e 	sbceq	r7, r1, #3584	; 0xe00
  1000b4:	02d17c0e 	sbcseq	r7, r1, #3584	; 0xe00
  1000b8:	02e17c0e 	rsceq	r7, r1, #3584	; 0xe00
  1000bc:	02f17c0e 	rscseq	r7, r1, #3584	; 0xe00
  1000c0:	03017c0e 	movweq	r7, #7182	; 0x1c0e
  1000c4:	03117c0e 	tsteq	r1, #3584	; 0xe00
  1000c8:	03217c0e 			; <UNDEFINED> instruction: 0x03217c0e
  1000cc:	03317c0e 	teqeq	r1, #3584	; 0xe00
  1000d0:	03417c0e 	movteq	r7, #7182	; 0x1c0e
  1000d4:	03517c0e 	cmpeq	r1, #3584	; 0xe00
  1000d8:	03617c0e 	cmneq	r1, #3584	; 0xe00
  1000dc:	03717c0e 	cmneq	r1, #3584	; 0xe00
  1000e0:	03817c0e 	orreq	r7, r1, #3584	; 0xe00
  1000e4:	03917c0e 	orrseq	r7, r1, #3584	; 0xe00
  1000e8:	03a17c0e 			; <UNDEFINED> instruction: 0x03a17c0e
  1000ec:	03b17c0e 			; <UNDEFINED> instruction: 0x03b17c0e
  1000f0:	03c17c0e 	biceq	r7, r1, #3584	; 0xe00
  1000f4:	03d17c0e 	bicseq	r7, r1, #3584	; 0xe00
  1000f8:	03e17c0e 	mvneq	r7, #3584	; 0xe00
  1000fc:	03f17c0e 	mvnseq	r7, #3584	; 0xe00
  100100:	04017c0e 	streq	r7, [r1], #-3086	; 0xfffff3f2
  100104:	04117c0e 	ldreq	r7, [r1], #-3086	; 0xfffff3f2
  100108:	04217c0e 	strteq	r7, [r1], #-3086	; 0xfffff3f2
  10010c:	04317c0e 	ldrteq	r7, [r1], #-3086	; 0xfffff3f2
  100110:	04417c0e 	strbeq	r7, [r1], #-3086	; 0xfffff3f2
  100114:	04517c0e 	ldrbeq	r7, [r1], #-3086	; 0xfffff3f2
  100118:	04617c0e 	strbteq	r7, [r1], #-3086	; 0xfffff3f2
  10011c:	04717c0e 	ldrbteq	r7, [r1], #-3086	; 0xfffff3f2
  100120:	04817c0e 	streq	r7, [r1], #3086	; 0xc0e
  100124:	04917c0e 	ldreq	r7, [r1], #3086	; 0xc0e
  100128:	04a17c0e 	strteq	r7, [r1], #3086	; 0xc0e
  10012c:	04b17c0e 	ldrteq	r7, [r1], #3086	; 0xc0e
  100130:	04c17c0e 	strbeq	r7, [r1], #3086	; 0xc0e
  100134:	04d17c0e 	ldrbeq	r7, [r1], #3086	; 0xc0e
  100138:	04e17c0e 	strbteq	r7, [r1], #3086	; 0xc0e
  10013c:	04f17c0e 	ldrbteq	r7, [r1], #3086	; 0xc0e
  100140:	05017c0e 	streq	r7, [r1, #-3086]	; 0xfffff3f2
  100144:	05117c0e 	ldreq	r7, [r1, #-3086]	; 0xfffff3f2
  100148:	05217c0e 	streq	r7, [r1, #-3086]!	; 0xfffff3f2
  10014c:	05317c0e 	ldreq	r7, [r1, #-3086]!	; 0xfffff3f2
  100150:	05417c0e 	strbeq	r7, [r1, #-3086]	; 0xfffff3f2
  100154:	05517c0e 	ldrbeq	r7, [r1, #-3086]	; 0xfffff3f2
  100158:	05617c0e 	strbeq	r7, [r1, #-3086]!	; 0xfffff3f2
  10015c:	05717c0e 	ldrbeq	r7, [r1, #-3086]!	; 0xfffff3f2
  100160:	05817c0e 	streq	r7, [r1, #3086]	; 0xc0e
  100164:	05917c0e 	ldreq	r7, [r1, #3086]	; 0xc0e
  100168:	05a17c0e 	streq	r7, [r1, #3086]!	; 0xc0e
  10016c:	05b17c0e 	ldreq	r7, [r1, #3086]!	; 0xc0e
  100170:	05c17c0e 	strbeq	r7, [r1, #3086]	; 0xc0e
  100174:	05d17c0e 	ldrbeq	r7, [r1, #3086]	; 0xc0e
  100178:	05e17c0e 	strbeq	r7, [r1, #3086]!	; 0xc0e
  10017c:	05f17c0e 	ldrbeq	r7, [r1, #3086]!	; 0xc0e
  100180:	06017c0e 	streq	r7, [r1], -lr, lsl #24
  100184:	06117c0e 	ldreq	r7, [r1], -lr, lsl #24
  100188:	06217c0e 	strteq	r7, [r1], -lr, lsl #24
  10018c:	06317c0e 	ldrteq	r7, [r1], -lr, lsl #24
  100190:	06417c0e 	strbeq	r7, [r1], -lr, lsl #24
  100194:	06517c0e 	ldrbeq	r7, [r1], -lr, lsl #24
  100198:	06617c0e 	strbteq	r7, [r1], -lr, lsl #24
  10019c:	06717c0e 	ldrbteq	r7, [r1], -lr, lsl #24
  1001a0:	06817c0e 	streq	r7, [r1], lr, lsl #24
  1001a4:	06917c0e 	ldreq	r7, [r1], lr, lsl #24
  1001a8:	06a17c0e 	strteq	r7, [r1], lr, lsl #24
  1001ac:	06b17c0e 	ldrteq	r7, [r1], lr, lsl #24
  1001b0:	06c17c0e 	strbeq	r7, [r1], lr, lsl #24
  1001b4:	06d17c0e 	ldrbeq	r7, [r1], lr, lsl #24
  1001b8:	06e17c0e 	strbteq	r7, [r1], lr, lsl #24
  1001bc:	06f17c0e 	ldrbteq	r7, [r1], lr, lsl #24
  1001c0:	07017c0e 	streq	r7, [r1, -lr, lsl #24]
  1001c4:	07117c0e 	ldreq	r7, [r1, -lr, lsl #24]
  1001c8:	07217c0e 	streq	r7, [r1, -lr, lsl #24]!
  1001cc:	07317c0e 	ldreq	r7, [r1, -lr, lsl #24]!
  1001d0:	07417c0e 	strbeq	r7, [r1, -lr, lsl #24]
  1001d4:	07517c0e 	ldrbeq	r7, [r1, -lr, lsl #24]
  1001d8:	07617c0e 	strbeq	r7, [r1, -lr, lsl #24]!
  1001dc:	07717c0e 	ldrbeq	r7, [r1, -lr, lsl #24]!
  1001e0:	07817c0e 	streq	r7, [r1, lr, lsl #24]
  1001e4:	07917c0e 	ldreq	r7, [r1, lr, lsl #24]
  1001e8:	07a17c0e 	streq	r7, [r1, lr, lsl #24]!
  1001ec:	07b17c0e 	ldreq	r7, [r1, lr, lsl #24]!
  1001f0:	07c17c0e 	strbeq	r7, [r1, lr, lsl #24]
  1001f4:	07d17c0e 	ldrbeq	r7, [r1, lr, lsl #24]
  1001f8:	07e17c0e 	strbeq	r7, [r1, lr, lsl #24]!
  1001fc:	07f17c0e 	ldrbeq	r7, [r1, lr, lsl #24]!
  100200:	08017c0e 	stmdaeq	r1, {r1, r2, r3, sl, fp, ip, sp, lr}
  100204:	08117c0e 	ldmdaeq	r1, {r1, r2, r3, sl, fp, ip, sp, lr}
  100208:	08217c0e 	stmdaeq	r1!, {r1, r2, r3, sl, fp, ip, sp, lr}
  10020c:	08317c0e 	ldmdaeq	r1!, {r1, r2, r3, sl, fp, ip, sp, lr}
  100210:	08417c0e 	stmdaeq	r1, {r1, r2, r3, sl, fp, ip, sp, lr}^
  100214:	08517c0e 	ldmdaeq	r1, {r1, r2, r3, sl, fp, ip, sp, lr}^
  100218:	08617c0e 	stmdaeq	r1!, {r1, r2, r3, sl, fp, ip, sp, lr}^
  10021c:	08717c0e 	ldmdaeq	r1!, {r1, r2, r3, sl, fp, ip, sp, lr}^
  100220:	08817c0e 	stmeq	r1, {r1, r2, r3, sl, fp, ip, sp, lr}
  100224:	08917c0e 	ldmeq	r1, {r1, r2, r3, sl, fp, ip, sp, lr}
  100228:	08a17c0e 	stmiaeq	r1!, {r1, r2, r3, sl, fp, ip, sp, lr}
  10022c:	08b17c0e 	ldmeq	r1!, {r1, r2, r3, sl, fp, ip, sp, lr}
  100230:	08c17c0e 	stmiaeq	r1, {r1, r2, r3, sl, fp, ip, sp, lr}^
  100234:	08d17c0e 	ldmeq	r1, {r1, r2, r3, sl, fp, ip, sp, lr}^
  100238:	08e17c0e 	stmiaeq	r1!, {r1, r2, r3, sl, fp, ip, sp, lr}^
  10023c:	08f17c0e 	ldmeq	r1!, {r1, r2, r3, sl, fp, ip, sp, lr}^
  100240:	09017c0e 	stmdbeq	r1, {r1, r2, r3, sl, fp, ip, sp, lr}
  100244:	09117c0e 	ldmdbeq	r1, {r1, r2, r3, sl, fp, ip, sp, lr}
  100248:	09217c0e 	stmdbeq	r1!, {r1, r2, r3, sl, fp, ip, sp, lr}
  10024c:	09317c0e 	ldmdbeq	r1!, {r1, r2, r3, sl, fp, ip, sp, lr}
  100250:	09417c0e 	stmdbeq	r1, {r1, r2, r3, sl, fp, ip, sp, lr}^
  100254:	09517c0e 	ldmdbeq	r1, {r1, r2, r3, sl, fp, ip, sp, lr}^
  100258:	09617c0e 	stmdbeq	r1!, {r1, r2, r3, sl, fp, ip, sp, lr}^
  10025c:	09717c0e 	ldmdbeq	r1!, {r1, r2, r3, sl, fp, ip, sp, lr}^
  100260:	09817c0e 	stmibeq	r1, {r1, r2, r3, sl, fp, ip, sp, lr}
  100264:	09917c0e 	ldmibeq	r1, {r1, r2, r3, sl, fp, ip, sp, lr}
  100268:	09a17c0e 	stmibeq	r1!, {r1, r2, r3, sl, fp, ip, sp, lr}
  10026c:	09b17c0e 	ldmibeq	r1!, {r1, r2, r3, sl, fp, ip, sp, lr}
  100270:	09c17c0e 	stmibeq	r1, {r1, r2, r3, sl, fp, ip, sp, lr}^
  100274:	09d17c0e 	ldmibeq	r1, {r1, r2, r3, sl, fp, ip, sp, lr}^
  100278:	09e17c0e 	stmibeq	r1!, {r1, r2, r3, sl, fp, ip, sp, lr}^
  10027c:	09f17c0e 	ldmibeq	r1!, {r1, r2, r3, sl, fp, ip, sp, lr}^
  100280:	0a017c0e 	beq	15f2c0 <__cpu0_stack_end+0x34a50>
  100284:	0a117c0e 	beq	55f2c4 <__cpu0_stack_end+0x434a54>
  100288:	0a217c0e 	beq	95f2c8 <__cpu0_stack_end+0x834a58>
  10028c:	0a317c0e 	beq	d5f2cc <__cpu0_stack_end+0xc34a5c>
  100290:	0a417c0e 	beq	115f2d0 <__cpu0_stack_end+0x1034a60>
  100294:	0a517c0e 	beq	155f2d4 <__cpu0_stack_end+0x1434a64>
  100298:	0a617c0e 	beq	195f2d8 <__cpu0_stack_end+0x1834a68>
  10029c:	0a717c0e 	beq	1d5f2dc <__cpu0_stack_end+0x1c34a6c>
  1002a0:	0a817c0e 	beq	fe15f2e0 <__heap_end+0xbe25f2e0>
  1002a4:	0a917c0e 	beq	fe55f2e4 <__heap_end+0xbe65f2e4>
  1002a8:	0aa17c0e 	beq	fe95f2e8 <__heap_end+0xbea5f2e8>
  1002ac:	0ab17c0e 	beq	fed5f2ec <__heap_end+0xbee5f2ec>
  1002b0:	0ac17c0e 	beq	ff15f2f0 <__heap_end+0xbf25f2f0>
  1002b4:	0ad17c0e 	beq	ff55f2f4 <__heap_end+0xbf65f2f4>
  1002b8:	0ae17c0e 	beq	ff95f2f8 <__heap_end+0xbfa5f2f8>
  1002bc:	0af17c0e 	beq	ffd5f2fc <__heap_end+0xbfe5f2fc>
  1002c0:	0b017c0e 	bleq	15f300 <__cpu0_stack_end+0x34a90>
  1002c4:	0b117c0e 	bleq	55f304 <__cpu0_stack_end+0x434a94>
  1002c8:	0b217c0e 	bleq	95f308 <__cpu0_stack_end+0x834a98>
  1002cc:	0b317c0e 	bleq	d5f30c <__cpu0_stack_end+0xc34a9c>
  1002d0:	0b417c0e 	bleq	115f310 <__cpu0_stack_end+0x1034aa0>
  1002d4:	0b517c0e 	bleq	155f314 <__cpu0_stack_end+0x1434aa4>
  1002d8:	0b617c0e 	bleq	195f318 <__cpu0_stack_end+0x1834aa8>
  1002dc:	0b717c0e 	bleq	1d5f31c <__cpu0_stack_end+0x1c34aac>
  1002e0:	0b817c0e 	bleq	fe15f320 <__heap_end+0xbe25f320>
  1002e4:	0b917c0e 	bleq	fe55f324 <__heap_end+0xbe65f324>
  1002e8:	0ba17c0e 	bleq	fe95f328 <__heap_end+0xbea5f328>
  1002ec:	0bb17c0e 	bleq	fed5f32c <__heap_end+0xbee5f32c>
  1002f0:	0bc17c0e 	bleq	ff15f330 <__heap_end+0xbf25f330>
  1002f4:	0bd17c0e 	bleq	ff55f334 <__heap_end+0xbf65f334>
  1002f8:	0be17c0e 	bleq	ff95f338 <__heap_end+0xbfa5f338>
  1002fc:	0bf17c0e 	bleq	ffd5f33c <__heap_end+0xbfe5f33c>
  100300:	0c017c0e 	stceq	12, cr7, [r1], {14}
  100304:	0c117c0e 	ldceq	12, cr7, [r1], {14}
  100308:	0c217c0e 	stceq	12, cr7, [r1], #-56	; 0xffffffc8
  10030c:	0c317c0e 	ldceq	12, cr7, [r1], #-56	; 0xffffffc8
  100310:	0c417c0e 	mcrreq	12, 0, r7, r1, cr14
  100314:	0c517c0e 	mrrceq	12, 0, r7, r1, cr14
  100318:	0c617c0e 	stcleq	12, cr7, [r1], #-56	; 0xffffffc8
  10031c:	0c717c0e 	ldcleq	12, cr7, [r1], #-56	; 0xffffffc8
  100320:	0c817c0e 	stceq	12, cr7, [r1], {14}
  100324:	0c917c0e 	ldceq	12, cr7, [r1], {14}
  100328:	0ca17c0e 	stceq	12, cr7, [r1], #56	; 0x38
  10032c:	0cb17c0e 	ldceq	12, cr7, [r1], #56	; 0x38
  100330:	0cc17c0e 	stcleq	12, cr7, [r1], {14}
  100334:	0cd17c0e 	ldcleq	12, cr7, [r1], {14}
  100338:	0ce17c0e 	stcleq	12, cr7, [r1], #56	; 0x38
  10033c:	0cf17c0e 	ldcleq	12, cr7, [r1], #56	; 0x38
  100340:	0d017c0e 	stceq	12, cr7, [r1, #-56]	; 0xffffffc8
  100344:	0d117c0e 	ldceq	12, cr7, [r1, #-56]	; 0xffffffc8
  100348:	0d217c0e 	stceq	12, cr7, [r1, #-56]!	; 0xffffffc8
  10034c:	0d317c0e 	ldceq	12, cr7, [r1, #-56]!	; 0xffffffc8
  100350:	0d417c0e 	stcleq	12, cr7, [r1, #-56]	; 0xffffffc8
  100354:	0d517c0e 	ldcleq	12, cr7, [r1, #-56]	; 0xffffffc8
  100358:	0d617c0e 	stcleq	12, cr7, [r1, #-56]!	; 0xffffffc8
  10035c:	0d717c0e 	ldcleq	12, cr7, [r1, #-56]!	; 0xffffffc8
  100360:	0d817c0e 	stceq	12, cr7, [r1, #56]	; 0x38
  100364:	0d917c0e 	ldceq	12, cr7, [r1, #56]	; 0x38
  100368:	0da17c0e 	stceq	12, cr7, [r1, #56]!	; 0x38
  10036c:	0db17c0e 	ldceq	12, cr7, [r1, #56]!	; 0x38
  100370:	0dc17c0e 	stcleq	12, cr7, [r1, #56]	; 0x38
  100374:	0dd17c0e 	ldcleq	12, cr7, [r1, #56]	; 0x38
  100378:	0de17c0e 	stcleq	12, cr7, [r1, #56]!	; 0x38
  10037c:	0df17c0e 	ldcleq	12, cr7, [r1, #56]!	; 0x38
  100380:	0e017c0e 	cdpeq	12, 0, cr7, cr1, cr14, {0}
  100384:	0e117c0e 	cdpeq	12, 1, cr7, cr1, cr14, {0}
  100388:	0e217c0e 	cdpeq	12, 2, cr7, cr1, cr14, {0}
  10038c:	0e317c0e 	cdpeq	12, 3, cr7, cr1, cr14, {0}
  100390:	0e417c0e 	cdpeq	12, 4, cr7, cr1, cr14, {0}
  100394:	0e517c0e 	cdpeq	12, 5, cr7, cr1, cr14, {0}
  100398:	0e617c0e 	cdpeq	12, 6, cr7, cr1, cr14, {0}
  10039c:	0e717c0e 	cdpeq	12, 7, cr7, cr1, cr14, {0}
  1003a0:	0e817c0e 	cdpeq	12, 8, cr7, cr1, cr14, {0}
  1003a4:	0e917c0e 	cdpeq	12, 9, cr7, cr1, cr14, {0}
  1003a8:	0ea17c0e 	cdpeq	12, 10, cr7, cr1, cr14, {0}
  1003ac:	0eb17c0e 	cdpeq	12, 11, cr7, cr1, cr14, {0}
  1003b0:	0ec17c0e 	cdpeq	12, 12, cr7, cr1, cr14, {0}
  1003b4:	0ed17c0e 	cdpeq	12, 13, cr7, cr1, cr14, {0}
  1003b8:	0ee17c0e 	cdpeq	12, 14, cr7, cr1, cr14, {0}
  1003bc:	0ef17c0e 	cdpeq	12, 15, cr7, cr1, cr14, {0}
  1003c0:	0f017c0e 	svceq	0x00017c0e
  1003c4:	0f117c0e 	svceq	0x00117c0e
  1003c8:	0f217c0e 	svceq	0x00217c0e
  1003cc:	0f317c0e 	svceq	0x00317c0e
  1003d0:	0f417c0e 	svceq	0x00417c0e
  1003d4:	0f517c0e 	svceq	0x00517c0e
  1003d8:	0f617c0e 	svceq	0x00617c0e
  1003dc:	0f717c0e 	svceq	0x00717c0e
  1003e0:	0f817c0e 	svceq	0x00817c0e
  1003e4:	0f917c0e 	svceq	0x00917c0e
  1003e8:	0fa17c0e 	svceq	0x00a17c0e
  1003ec:	0fb17c0e 	svceq	0x00b17c0e
  1003f0:	0fc17c0e 	svceq	0x00c17c0e
  1003f4:	0fd17c0e 	svceq	0x00d17c0e
  1003f8:	0fe17c0e 	svceq	0x00e17c0e
  1003fc:	0ff17c0e 	svceq	0x00f17c0e
  100400:	10017c0e 	andne	r7, r1, lr, lsl #24
  100404:	10117c0e 	andsne	r7, r1, lr, lsl #24
  100408:	10217c0e 	eorne	r7, r1, lr, lsl #24
  10040c:	10317c0e 	eorsne	r7, r1, lr, lsl #24
  100410:	10417c0e 	subne	r7, r1, lr, lsl #24
  100414:	10517c0e 	subsne	r7, r1, lr, lsl #24
  100418:	10617c0e 	rsbne	r7, r1, lr, lsl #24
  10041c:	10717c0e 	rsbsne	r7, r1, lr, lsl #24
  100420:	10817c0e 	addne	r7, r1, lr, lsl #24
  100424:	10917c0e 	addsne	r7, r1, lr, lsl #24
  100428:	10a17c0e 	adcne	r7, r1, lr, lsl #24
  10042c:	10b17c0e 	adcsne	r7, r1, lr, lsl #24
  100430:	10c17c0e 	sbcne	r7, r1, lr, lsl #24
  100434:	10d17c0e 	sbcsne	r7, r1, lr, lsl #24
  100438:	10e17c0e 	rscne	r7, r1, lr, lsl #24
  10043c:	10f17c0e 	rscsne	r7, r1, lr, lsl #24
  100440:	11017c0e 	tstne	r1, lr, lsl #24
  100444:	11117c0e 	tstne	r1, lr, lsl #24
  100448:	11217c0e 			; <UNDEFINED> instruction: 0x11217c0e
  10044c:	11317c0e 	teqne	r1, lr, lsl #24
  100450:	11417c0e 	cmpne	r1, lr, lsl #24
  100454:	11517c0e 	cmpne	r1, lr, lsl #24
  100458:	11617c0e 	cmnne	r1, lr, lsl #24
  10045c:	11717c0e 	cmnne	r1, lr, lsl #24
  100460:	11817c0e 	orrne	r7, r1, lr, lsl #24
  100464:	11917c0e 	orrsne	r7, r1, lr, lsl #24
  100468:	11a17c0e 			; <UNDEFINED> instruction: 0x11a17c0e
  10046c:	11b17c0e 			; <UNDEFINED> instruction: 0x11b17c0e
  100470:	11c17c0e 	bicne	r7, r1, lr, lsl #24
  100474:	11d17c0e 	bicsne	r7, r1, lr, lsl #24
  100478:	11e17c0e 	mvnne	r7, lr, lsl #24
  10047c:	11f17c0e 	mvnsne	r7, lr, lsl #24
  100480:	12017c0e 	andne	r7, r1, #3584	; 0xe00
  100484:	12117c0e 	andsne	r7, r1, #3584	; 0xe00
  100488:	12217c0e 	eorne	r7, r1, #3584	; 0xe00
  10048c:	12317c0e 	eorsne	r7, r1, #3584	; 0xe00
  100490:	12417c0e 	subne	r7, r1, #3584	; 0xe00
  100494:	12517c0e 	subsne	r7, r1, #3584	; 0xe00
  100498:	12617c0e 	rsbne	r7, r1, #3584	; 0xe00
  10049c:	12717c0e 	rsbsne	r7, r1, #3584	; 0xe00
  1004a0:	12817c0e 	addne	r7, r1, #3584	; 0xe00
  1004a4:	12917c0e 	addsne	r7, r1, #3584	; 0xe00
  1004a8:	12a17c0e 	adcne	r7, r1, #3584	; 0xe00
  1004ac:	12b17c0e 	adcsne	r7, r1, #3584	; 0xe00
  1004b0:	12c17c0e 	sbcne	r7, r1, #3584	; 0xe00
  1004b4:	12d17c0e 	sbcsne	r7, r1, #3584	; 0xe00
  1004b8:	12e17c0e 	rscne	r7, r1, #3584	; 0xe00
  1004bc:	12f17c0e 	rscsne	r7, r1, #3584	; 0xe00
  1004c0:	13017c0e 	movwne	r7, #7182	; 0x1c0e
  1004c4:	13117c0e 	tstne	r1, #3584	; 0xe00
  1004c8:	13217c0e 			; <UNDEFINED> instruction: 0x13217c0e
  1004cc:	13317c0e 	teqne	r1, #3584	; 0xe00
  1004d0:	13417c0e 	movtne	r7, #7182	; 0x1c0e
  1004d4:	13517c0e 	cmpne	r1, #3584	; 0xe00
  1004d8:	13617c0e 	cmnne	r1, #3584	; 0xe00
  1004dc:	13717c0e 	cmnne	r1, #3584	; 0xe00
  1004e0:	13817c0e 	orrne	r7, r1, #3584	; 0xe00
  1004e4:	13917c0e 	orrsne	r7, r1, #3584	; 0xe00
  1004e8:	13a17c0e 			; <UNDEFINED> instruction: 0x13a17c0e
  1004ec:	13b17c0e 			; <UNDEFINED> instruction: 0x13b17c0e
  1004f0:	13c17c0e 	bicne	r7, r1, #3584	; 0xe00
  1004f4:	13d17c0e 	bicsne	r7, r1, #3584	; 0xe00
  1004f8:	13e17c0e 	mvnne	r7, #3584	; 0xe00
  1004fc:	13f17c0e 	mvnsne	r7, #3584	; 0xe00
  100500:	14017c0e 	strne	r7, [r1], #-3086	; 0xfffff3f2
  100504:	14117c0e 	ldrne	r7, [r1], #-3086	; 0xfffff3f2
  100508:	14217c0e 	strtne	r7, [r1], #-3086	; 0xfffff3f2
  10050c:	14317c0e 	ldrtne	r7, [r1], #-3086	; 0xfffff3f2
  100510:	14417c0e 	strbne	r7, [r1], #-3086	; 0xfffff3f2
  100514:	14517c0e 	ldrbne	r7, [r1], #-3086	; 0xfffff3f2
  100518:	14617c0e 	strbtne	r7, [r1], #-3086	; 0xfffff3f2
  10051c:	14717c0e 	ldrbtne	r7, [r1], #-3086	; 0xfffff3f2
  100520:	14817c0e 	strne	r7, [r1], #3086	; 0xc0e
  100524:	14917c0e 	ldrne	r7, [r1], #3086	; 0xc0e
  100528:	14a17c0e 	strtne	r7, [r1], #3086	; 0xc0e
  10052c:	14b17c0e 	ldrtne	r7, [r1], #3086	; 0xc0e
  100530:	14c17c0e 	strbne	r7, [r1], #3086	; 0xc0e
  100534:	14d17c0e 	ldrbne	r7, [r1], #3086	; 0xc0e
  100538:	14e17c0e 	strbtne	r7, [r1], #3086	; 0xc0e
  10053c:	14f17c0e 	ldrbtne	r7, [r1], #3086	; 0xc0e
  100540:	15017c0e 	strne	r7, [r1, #-3086]	; 0xfffff3f2
  100544:	15117c0e 	ldrne	r7, [r1, #-3086]	; 0xfffff3f2
  100548:	15217c0e 	strne	r7, [r1, #-3086]!	; 0xfffff3f2
  10054c:	15317c0e 	ldrne	r7, [r1, #-3086]!	; 0xfffff3f2
  100550:	15417c0e 	strbne	r7, [r1, #-3086]	; 0xfffff3f2
  100554:	15517c0e 	ldrbne	r7, [r1, #-3086]	; 0xfffff3f2
  100558:	15617c0e 	strbne	r7, [r1, #-3086]!	; 0xfffff3f2
  10055c:	15717c0e 	ldrbne	r7, [r1, #-3086]!	; 0xfffff3f2
  100560:	15817c0e 	strne	r7, [r1, #3086]	; 0xc0e
  100564:	15917c0e 	ldrne	r7, [r1, #3086]	; 0xc0e
  100568:	15a17c0e 	strne	r7, [r1, #3086]!	; 0xc0e
  10056c:	15b17c0e 	ldrne	r7, [r1, #3086]!	; 0xc0e
  100570:	15c17c0e 	strbne	r7, [r1, #3086]	; 0xc0e
  100574:	15d17c0e 	ldrbne	r7, [r1, #3086]	; 0xc0e
  100578:	15e17c0e 	strbne	r7, [r1, #3086]!	; 0xc0e
  10057c:	15f17c0e 	ldrbne	r7, [r1, #3086]!	; 0xc0e
  100580:	16017c0e 	strne	r7, [r1], -lr, lsl #24
  100584:	16117c0e 	ldrne	r7, [r1], -lr, lsl #24
  100588:	16217c0e 	strtne	r7, [r1], -lr, lsl #24
  10058c:	16317c0e 	ldrtne	r7, [r1], -lr, lsl #24
  100590:	16417c0e 	strbne	r7, [r1], -lr, lsl #24
  100594:	16517c0e 	ldrbne	r7, [r1], -lr, lsl #24
  100598:	16617c0e 	strbtne	r7, [r1], -lr, lsl #24
  10059c:	16717c0e 	ldrbtne	r7, [r1], -lr, lsl #24
  1005a0:	16817c0e 	strne	r7, [r1], lr, lsl #24
  1005a4:	16917c0e 	ldrne	r7, [r1], lr, lsl #24
  1005a8:	16a17c0e 	strtne	r7, [r1], lr, lsl #24
  1005ac:	16b17c0e 	ldrtne	r7, [r1], lr, lsl #24
  1005b0:	16c17c0e 	strbne	r7, [r1], lr, lsl #24
  1005b4:	16d17c0e 	ldrbne	r7, [r1], lr, lsl #24
  1005b8:	16e17c0e 	strbtne	r7, [r1], lr, lsl #24
  1005bc:	16f17c0e 	ldrbtne	r7, [r1], lr, lsl #24
  1005c0:	17017c0e 	strne	r7, [r1, -lr, lsl #24]
  1005c4:	17117c0e 	ldrne	r7, [r1, -lr, lsl #24]
  1005c8:	17217c0e 	strne	r7, [r1, -lr, lsl #24]!
  1005cc:	17317c0e 	ldrne	r7, [r1, -lr, lsl #24]!
  1005d0:	17417c0e 	strbne	r7, [r1, -lr, lsl #24]
  1005d4:	17517c0e 	ldrbne	r7, [r1, -lr, lsl #24]
  1005d8:	17617c0e 	strbne	r7, [r1, -lr, lsl #24]!
  1005dc:	17717c0e 	ldrbne	r7, [r1, -lr, lsl #24]!
  1005e0:	17817c0e 	strne	r7, [r1, lr, lsl #24]
  1005e4:	17917c0e 	ldrne	r7, [r1, lr, lsl #24]
  1005e8:	17a17c0e 	strne	r7, [r1, lr, lsl #24]!
  1005ec:	17b17c0e 	ldrne	r7, [r1, lr, lsl #24]!
  1005f0:	17c17c0e 	strbne	r7, [r1, lr, lsl #24]
  1005f4:	17d17c0e 	ldrbne	r7, [r1, lr, lsl #24]
  1005f8:	17e17c0e 	strbne	r7, [r1, lr, lsl #24]!
  1005fc:	17f17c0e 	ldrbne	r7, [r1, lr, lsl #24]!
  100600:	18017c0e 	stmdane	r1, {r1, r2, r3, sl, fp, ip, sp, lr}
  100604:	18117c0e 	ldmdane	r1, {r1, r2, r3, sl, fp, ip, sp, lr}
  100608:	18217c0e 	stmdane	r1!, {r1, r2, r3, sl, fp, ip, sp, lr}
  10060c:	18317c0e 	ldmdane	r1!, {r1, r2, r3, sl, fp, ip, sp, lr}
  100610:	18417c0e 	stmdane	r1, {r1, r2, r3, sl, fp, ip, sp, lr}^
  100614:	18517c0e 	ldmdane	r1, {r1, r2, r3, sl, fp, ip, sp, lr}^
  100618:	18617c0e 	stmdane	r1!, {r1, r2, r3, sl, fp, ip, sp, lr}^
  10061c:	18717c0e 	ldmdane	r1!, {r1, r2, r3, sl, fp, ip, sp, lr}^
  100620:	18817c0e 	stmne	r1, {r1, r2, r3, sl, fp, ip, sp, lr}
  100624:	18917c0e 	ldmne	r1, {r1, r2, r3, sl, fp, ip, sp, lr}
  100628:	18a17c0e 	stmiane	r1!, {r1, r2, r3, sl, fp, ip, sp, lr}
  10062c:	18b17c0e 	ldmne	r1!, {r1, r2, r3, sl, fp, ip, sp, lr}
  100630:	18c17c0e 	stmiane	r1, {r1, r2, r3, sl, fp, ip, sp, lr}^
  100634:	18d17c0e 	ldmne	r1, {r1, r2, r3, sl, fp, ip, sp, lr}^
  100638:	18e17c0e 	stmiane	r1!, {r1, r2, r3, sl, fp, ip, sp, lr}^
  10063c:	18f17c0e 	ldmne	r1!, {r1, r2, r3, sl, fp, ip, sp, lr}^
  100640:	19017c0e 	stmdbne	r1, {r1, r2, r3, sl, fp, ip, sp, lr}
  100644:	19117c0e 	ldmdbne	r1, {r1, r2, r3, sl, fp, ip, sp, lr}
  100648:	19217c0e 	stmdbne	r1!, {r1, r2, r3, sl, fp, ip, sp, lr}
  10064c:	19317c0e 	ldmdbne	r1!, {r1, r2, r3, sl, fp, ip, sp, lr}
  100650:	19417c0e 	stmdbne	r1, {r1, r2, r3, sl, fp, ip, sp, lr}^
  100654:	19517c0e 	ldmdbne	r1, {r1, r2, r3, sl, fp, ip, sp, lr}^
  100658:	19617c0e 	stmdbne	r1!, {r1, r2, r3, sl, fp, ip, sp, lr}^
  10065c:	19717c0e 	ldmdbne	r1!, {r1, r2, r3, sl, fp, ip, sp, lr}^
  100660:	19817c0e 	stmibne	r1, {r1, r2, r3, sl, fp, ip, sp, lr}
  100664:	19917c0e 	ldmibne	r1, {r1, r2, r3, sl, fp, ip, sp, lr}
  100668:	19a17c0e 	stmibne	r1!, {r1, r2, r3, sl, fp, ip, sp, lr}
  10066c:	19b17c0e 	ldmibne	r1!, {r1, r2, r3, sl, fp, ip, sp, lr}
  100670:	19c17c0e 	stmibne	r1, {r1, r2, r3, sl, fp, ip, sp, lr}^
  100674:	19d17c0e 	ldmibne	r1, {r1, r2, r3, sl, fp, ip, sp, lr}^
  100678:	19e17c0e 	stmibne	r1!, {r1, r2, r3, sl, fp, ip, sp, lr}^
  10067c:	19f17c0e 	ldmibne	r1!, {r1, r2, r3, sl, fp, ip, sp, lr}^
  100680:	1a017c0e 	bne	15f6c0 <__cpu0_stack_end+0x34e50>
  100684:	1a117c0e 	bne	55f6c4 <__cpu0_stack_end+0x434e54>
  100688:	1a217c0e 	bne	95f6c8 <__cpu0_stack_end+0x834e58>
  10068c:	1a317c0e 	bne	d5f6cc <__cpu0_stack_end+0xc34e5c>
  100690:	1a417c0e 	bne	115f6d0 <__cpu0_stack_end+0x1034e60>
  100694:	1a517c0e 	bne	155f6d4 <__cpu0_stack_end+0x1434e64>
  100698:	1a617c0e 	bne	195f6d8 <__cpu0_stack_end+0x1834e68>
  10069c:	1a717c0e 	bne	1d5f6dc <__cpu0_stack_end+0x1c34e6c>
  1006a0:	1a817c0e 	bne	fe15f6e0 <__heap_end+0xbe25f6e0>
  1006a4:	1a917c0e 	bne	fe55f6e4 <__heap_end+0xbe65f6e4>
  1006a8:	1aa17c0e 	bne	fe95f6e8 <__heap_end+0xbea5f6e8>
  1006ac:	1ab17c0e 	bne	fed5f6ec <__heap_end+0xbee5f6ec>
  1006b0:	1ac17c0e 	bne	ff15f6f0 <__heap_end+0xbf25f6f0>
  1006b4:	1ad17c0e 	bne	ff55f6f4 <__heap_end+0xbf65f6f4>
  1006b8:	1ae17c0e 	bne	ff95f6f8 <__heap_end+0xbfa5f6f8>
  1006bc:	1af17c0e 	bne	ffd5f6fc <__heap_end+0xbfe5f6fc>
  1006c0:	1b017c0e 	blne	15f700 <__cpu0_stack_end+0x34e90>
  1006c4:	1b117c0e 	blne	55f704 <__cpu0_stack_end+0x434e94>
  1006c8:	1b217c0e 	blne	95f708 <__cpu0_stack_end+0x834e98>
  1006cc:	1b317c0e 	blne	d5f70c <__cpu0_stack_end+0xc34e9c>
  1006d0:	1b417c0e 	blne	115f710 <__cpu0_stack_end+0x1034ea0>
  1006d4:	1b517c0e 	blne	155f714 <__cpu0_stack_end+0x1434ea4>
  1006d8:	1b617c0e 	blne	195f718 <__cpu0_stack_end+0x1834ea8>
  1006dc:	1b717c0e 	blne	1d5f71c <__cpu0_stack_end+0x1c34eac>
  1006e0:	1b817c0e 	blne	fe15f720 <__heap_end+0xbe25f720>
  1006e4:	1b917c0e 	blne	fe55f724 <__heap_end+0xbe65f724>
  1006e8:	1ba17c0e 	blne	fe95f728 <__heap_end+0xbea5f728>
  1006ec:	1bb17c0e 	blne	fed5f72c <__heap_end+0xbee5f72c>
  1006f0:	1bc17c0e 	blne	ff15f730 <__heap_end+0xbf25f730>
  1006f4:	1bd17c0e 	blne	ff55f734 <__heap_end+0xbf65f734>
  1006f8:	1be17c0e 	blne	ff95f738 <__heap_end+0xbfa5f738>
  1006fc:	1bf17c0e 	blne	ffd5f73c <__heap_end+0xbfe5f73c>
  100700:	1c017c0e 	stcne	12, cr7, [r1], {14}
  100704:	1c117c0e 	ldcne	12, cr7, [r1], {14}
  100708:	1c217c0e 	stcne	12, cr7, [r1], #-56	; 0xffffffc8
  10070c:	1c317c0e 	ldcne	12, cr7, [r1], #-56	; 0xffffffc8
  100710:	1c417c0e 	mcrrne	12, 0, r7, r1, cr14
  100714:	1c517c0e 	mrrcne	12, 0, r7, r1, cr14
  100718:	1c617c0e 	stclne	12, cr7, [r1], #-56	; 0xffffffc8
  10071c:	1c717c0e 	ldclne	12, cr7, [r1], #-56	; 0xffffffc8
  100720:	1c817c0e 	stcne	12, cr7, [r1], {14}
  100724:	1c917c0e 	ldcne	12, cr7, [r1], {14}
  100728:	1ca17c0e 	stcne	12, cr7, [r1], #56	; 0x38
  10072c:	1cb17c0e 	ldcne	12, cr7, [r1], #56	; 0x38
  100730:	1cc17c0e 	stclne	12, cr7, [r1], {14}
  100734:	1cd17c0e 	ldclne	12, cr7, [r1], {14}
  100738:	1ce17c0e 	stclne	12, cr7, [r1], #56	; 0x38
  10073c:	1cf17c0e 	ldclne	12, cr7, [r1], #56	; 0x38
  100740:	1d017c0e 	stcne	12, cr7, [r1, #-56]	; 0xffffffc8
  100744:	1d117c0e 	ldcne	12, cr7, [r1, #-56]	; 0xffffffc8
  100748:	1d217c0e 	stcne	12, cr7, [r1, #-56]!	; 0xffffffc8
  10074c:	1d317c0e 	ldcne	12, cr7, [r1, #-56]!	; 0xffffffc8
  100750:	1d417c0e 	stclne	12, cr7, [r1, #-56]	; 0xffffffc8
  100754:	1d517c0e 	ldclne	12, cr7, [r1, #-56]	; 0xffffffc8
  100758:	1d617c0e 	stclne	12, cr7, [r1, #-56]!	; 0xffffffc8
  10075c:	1d717c0e 	ldclne	12, cr7, [r1, #-56]!	; 0xffffffc8
  100760:	1d817c0e 	stcne	12, cr7, [r1, #56]	; 0x38
  100764:	1d917c0e 	ldcne	12, cr7, [r1, #56]	; 0x38
  100768:	1da17c0e 	stcne	12, cr7, [r1, #56]!	; 0x38
  10076c:	1db17c0e 	ldcne	12, cr7, [r1, #56]!	; 0x38
  100770:	1dc17c0e 	stclne	12, cr7, [r1, #56]	; 0x38
  100774:	1dd17c0e 	ldclne	12, cr7, [r1, #56]	; 0x38
  100778:	1de17c0e 	stclne	12, cr7, [r1, #56]!	; 0x38
  10077c:	1df17c0e 	ldclne	12, cr7, [r1, #56]!	; 0x38
  100780:	1e017c0e 	cdpne	12, 0, cr7, cr1, cr14, {0}
  100784:	1e117c0e 	cdpne	12, 1, cr7, cr1, cr14, {0}
  100788:	1e217c0e 	cdpne	12, 2, cr7, cr1, cr14, {0}
  10078c:	1e317c0e 	cdpne	12, 3, cr7, cr1, cr14, {0}
  100790:	1e417c0e 	cdpne	12, 4, cr7, cr1, cr14, {0}
  100794:	1e517c0e 	cdpne	12, 5, cr7, cr1, cr14, {0}
  100798:	1e617c0e 	cdpne	12, 6, cr7, cr1, cr14, {0}
  10079c:	1e717c0e 	cdpne	12, 7, cr7, cr1, cr14, {0}
  1007a0:	1e817c0e 	cdpne	12, 8, cr7, cr1, cr14, {0}
  1007a4:	1e917c0e 	cdpne	12, 9, cr7, cr1, cr14, {0}
  1007a8:	1ea17c0e 	cdpne	12, 10, cr7, cr1, cr14, {0}
  1007ac:	1eb17c0e 	cdpne	12, 11, cr7, cr1, cr14, {0}
  1007b0:	1ec17c0e 	cdpne	12, 12, cr7, cr1, cr14, {0}
  1007b4:	1ed17c0e 	cdpne	12, 13, cr7, cr1, cr14, {0}
  1007b8:	1ee17c0e 	cdpne	12, 14, cr7, cr1, cr14, {0}
  1007bc:	1ef17c0e 	cdpne	12, 15, cr7, cr1, cr14, {0}
  1007c0:	1f017c0e 	svcne	0x00017c0e
  1007c4:	1f117c0e 	svcne	0x00117c0e
  1007c8:	1f217c0e 	svcne	0x00217c0e
  1007cc:	1f317c0e 	svcne	0x00317c0e
  1007d0:	1f417c0e 	svcne	0x00417c0e
  1007d4:	1f517c0e 	svcne	0x00517c0e
  1007d8:	1f617c0e 	svcne	0x00617c0e
  1007dc:	1f717c0e 	svcne	0x00717c0e
  1007e0:	1f817c0e 	svcne	0x00817c0e
  1007e4:	1f917c0e 	svcne	0x00917c0e
  1007e8:	1fa17c0e 	svcne	0x00a17c0e
  1007ec:	1fb17c0e 	svcne	0x00b17c0e
  1007f0:	1fc17c0e 	svcne	0x00c17c0e
  1007f4:	1fd17c0e 	svcne	0x00d17c0e
  1007f8:	1fe17c0e 	svcne	0x00e17c0e
  1007fc:	1ff17c0e 	svcne	0x00f17c0e
  100800:	20017c0e 	andcs	r7, r1, lr, lsl #24
  100804:	20117c0e 	andscs	r7, r1, lr, lsl #24
  100808:	20217c0e 	eorcs	r7, r1, lr, lsl #24
  10080c:	20317c0e 	eorscs	r7, r1, lr, lsl #24
  100810:	20417c0e 	subcs	r7, r1, lr, lsl #24
  100814:	20517c0e 	subscs	r7, r1, lr, lsl #24
  100818:	20617c0e 	rsbcs	r7, r1, lr, lsl #24
  10081c:	20717c0e 	rsbscs	r7, r1, lr, lsl #24
  100820:	20817c0e 	addcs	r7, r1, lr, lsl #24
  100824:	20917c0e 	addscs	r7, r1, lr, lsl #24
  100828:	20a17c0e 	adccs	r7, r1, lr, lsl #24
  10082c:	20b17c0e 	adcscs	r7, r1, lr, lsl #24
  100830:	20c17c0e 	sbccs	r7, r1, lr, lsl #24
  100834:	20d17c0e 	sbcscs	r7, r1, lr, lsl #24
  100838:	20e17c0e 	rsccs	r7, r1, lr, lsl #24
  10083c:	20f17c0e 	rscscs	r7, r1, lr, lsl #24
  100840:	21017c0e 	tstcs	r1, lr, lsl #24
  100844:	21117c0e 	tstcs	r1, lr, lsl #24
  100848:	21217c0e 			; <UNDEFINED> instruction: 0x21217c0e
  10084c:	21317c0e 	teqcs	r1, lr, lsl #24
  100850:	21417c0e 	cmpcs	r1, lr, lsl #24
  100854:	21517c0e 	cmpcs	r1, lr, lsl #24
  100858:	21617c0e 	cmncs	r1, lr, lsl #24
  10085c:	21717c0e 	cmncs	r1, lr, lsl #24
  100860:	21817c0e 	orrcs	r7, r1, lr, lsl #24
  100864:	21917c0e 	orrscs	r7, r1, lr, lsl #24
  100868:	21a17c0e 			; <UNDEFINED> instruction: 0x21a17c0e
  10086c:	21b17c0e 			; <UNDEFINED> instruction: 0x21b17c0e
  100870:	21c17c0e 	biccs	r7, r1, lr, lsl #24
  100874:	21d17c0e 	bicscs	r7, r1, lr, lsl #24
  100878:	21e17c0e 	mvncs	r7, lr, lsl #24
  10087c:	21f17c0e 	mvnscs	r7, lr, lsl #24
  100880:	22017c0e 	andcs	r7, r1, #3584	; 0xe00
  100884:	22117c0e 	andscs	r7, r1, #3584	; 0xe00
  100888:	22217c0e 	eorcs	r7, r1, #3584	; 0xe00
  10088c:	22317c0e 	eorscs	r7, r1, #3584	; 0xe00
  100890:	22417c0e 	subcs	r7, r1, #3584	; 0xe00
  100894:	22517c0e 	subscs	r7, r1, #3584	; 0xe00
  100898:	22617c0e 	rsbcs	r7, r1, #3584	; 0xe00
  10089c:	22717c0e 	rsbscs	r7, r1, #3584	; 0xe00
  1008a0:	22817c0e 	addcs	r7, r1, #3584	; 0xe00
  1008a4:	22917c0e 	addscs	r7, r1, #3584	; 0xe00
  1008a8:	22a17c0e 	adccs	r7, r1, #3584	; 0xe00
  1008ac:	22b17c0e 	adcscs	r7, r1, #3584	; 0xe00
  1008b0:	22c17c0e 	sbccs	r7, r1, #3584	; 0xe00
  1008b4:	22d17c0e 	sbcscs	r7, r1, #3584	; 0xe00
  1008b8:	22e17c0e 	rsccs	r7, r1, #3584	; 0xe00
  1008bc:	22f17c0e 	rscscs	r7, r1, #3584	; 0xe00
  1008c0:	23017c0e 	movwcs	r7, #7182	; 0x1c0e
  1008c4:	23117c0e 	tstcs	r1, #3584	; 0xe00
  1008c8:	23217c0e 			; <UNDEFINED> instruction: 0x23217c0e
  1008cc:	23317c0e 	teqcs	r1, #3584	; 0xe00
  1008d0:	23417c0e 	movtcs	r7, #7182	; 0x1c0e
  1008d4:	23517c0e 	cmpcs	r1, #3584	; 0xe00
  1008d8:	23617c0e 	cmncs	r1, #3584	; 0xe00
  1008dc:	23717c0e 	cmncs	r1, #3584	; 0xe00
  1008e0:	23817c0e 	orrcs	r7, r1, #3584	; 0xe00
  1008e4:	23917c0e 	orrscs	r7, r1, #3584	; 0xe00
  1008e8:	23a17c0e 			; <UNDEFINED> instruction: 0x23a17c0e
  1008ec:	23b17c0e 			; <UNDEFINED> instruction: 0x23b17c0e
  1008f0:	23c17c0e 	biccs	r7, r1, #3584	; 0xe00
  1008f4:	23d17c0e 	bicscs	r7, r1, #3584	; 0xe00
  1008f8:	23e17c0e 	mvncs	r7, #3584	; 0xe00
  1008fc:	23f17c0e 	mvnscs	r7, #3584	; 0xe00
  100900:	24017c0e 	strcs	r7, [r1], #-3086	; 0xfffff3f2
  100904:	24117c0e 	ldrcs	r7, [r1], #-3086	; 0xfffff3f2
  100908:	24217c0e 	strtcs	r7, [r1], #-3086	; 0xfffff3f2
  10090c:	24317c0e 	ldrtcs	r7, [r1], #-3086	; 0xfffff3f2
  100910:	24417c0e 	strbcs	r7, [r1], #-3086	; 0xfffff3f2
  100914:	24517c0e 	ldrbcs	r7, [r1], #-3086	; 0xfffff3f2
  100918:	24617c0e 	strbtcs	r7, [r1], #-3086	; 0xfffff3f2
  10091c:	24717c0e 	ldrbtcs	r7, [r1], #-3086	; 0xfffff3f2
  100920:	24817c0e 	strcs	r7, [r1], #3086	; 0xc0e
  100924:	24917c0e 	ldrcs	r7, [r1], #3086	; 0xc0e
  100928:	24a17c0e 	strtcs	r7, [r1], #3086	; 0xc0e
  10092c:	24b17c0e 	ldrtcs	r7, [r1], #3086	; 0xc0e
  100930:	24c17c0e 	strbcs	r7, [r1], #3086	; 0xc0e
  100934:	24d17c0e 	ldrbcs	r7, [r1], #3086	; 0xc0e
  100938:	24e17c0e 	strbtcs	r7, [r1], #3086	; 0xc0e
  10093c:	24f17c0e 	ldrbtcs	r7, [r1], #3086	; 0xc0e
  100940:	25017c0e 	strcs	r7, [r1, #-3086]	; 0xfffff3f2
  100944:	25117c0e 	ldrcs	r7, [r1, #-3086]	; 0xfffff3f2
  100948:	25217c0e 	strcs	r7, [r1, #-3086]!	; 0xfffff3f2
  10094c:	25317c0e 	ldrcs	r7, [r1, #-3086]!	; 0xfffff3f2
  100950:	25417c0e 	strbcs	r7, [r1, #-3086]	; 0xfffff3f2
  100954:	25517c0e 	ldrbcs	r7, [r1, #-3086]	; 0xfffff3f2
  100958:	25617c0e 	strbcs	r7, [r1, #-3086]!	; 0xfffff3f2
  10095c:	25717c0e 	ldrbcs	r7, [r1, #-3086]!	; 0xfffff3f2
  100960:	25817c0e 	strcs	r7, [r1, #3086]	; 0xc0e
  100964:	25917c0e 	ldrcs	r7, [r1, #3086]	; 0xc0e
  100968:	25a17c0e 	strcs	r7, [r1, #3086]!	; 0xc0e
  10096c:	25b17c0e 	ldrcs	r7, [r1, #3086]!	; 0xc0e
  100970:	25c17c0e 	strbcs	r7, [r1, #3086]	; 0xc0e
  100974:	25d17c0e 	ldrbcs	r7, [r1, #3086]	; 0xc0e
  100978:	25e17c0e 	strbcs	r7, [r1, #3086]!	; 0xc0e
  10097c:	25f17c0e 	ldrbcs	r7, [r1, #3086]!	; 0xc0e
  100980:	26017c0e 	strcs	r7, [r1], -lr, lsl #24
  100984:	26117c0e 	ldrcs	r7, [r1], -lr, lsl #24
  100988:	26217c0e 	strtcs	r7, [r1], -lr, lsl #24
  10098c:	26317c0e 	ldrtcs	r7, [r1], -lr, lsl #24
  100990:	26417c0e 	strbcs	r7, [r1], -lr, lsl #24
  100994:	26517c0e 	ldrbcs	r7, [r1], -lr, lsl #24
  100998:	26617c0e 	strbtcs	r7, [r1], -lr, lsl #24
  10099c:	26717c0e 	ldrbtcs	r7, [r1], -lr, lsl #24
  1009a0:	26817c0e 	strcs	r7, [r1], lr, lsl #24
  1009a4:	26917c0e 	ldrcs	r7, [r1], lr, lsl #24
  1009a8:	26a17c0e 	strtcs	r7, [r1], lr, lsl #24
  1009ac:	26b17c0e 	ldrtcs	r7, [r1], lr, lsl #24
  1009b0:	26c17c0e 	strbcs	r7, [r1], lr, lsl #24
  1009b4:	26d17c0e 	ldrbcs	r7, [r1], lr, lsl #24
  1009b8:	26e17c0e 	strbtcs	r7, [r1], lr, lsl #24
  1009bc:	26f17c0e 	ldrbtcs	r7, [r1], lr, lsl #24
  1009c0:	27017c0e 	strcs	r7, [r1, -lr, lsl #24]
  1009c4:	27117c0e 	ldrcs	r7, [r1, -lr, lsl #24]
  1009c8:	27217c0e 	strcs	r7, [r1, -lr, lsl #24]!
  1009cc:	27317c0e 	ldrcs	r7, [r1, -lr, lsl #24]!
  1009d0:	27417c0e 	strbcs	r7, [r1, -lr, lsl #24]
  1009d4:	27517c0e 	ldrbcs	r7, [r1, -lr, lsl #24]
  1009d8:	27617c0e 	strbcs	r7, [r1, -lr, lsl #24]!
  1009dc:	27717c0e 	ldrbcs	r7, [r1, -lr, lsl #24]!
  1009e0:	27817c0e 	strcs	r7, [r1, lr, lsl #24]
  1009e4:	27917c0e 	ldrcs	r7, [r1, lr, lsl #24]
  1009e8:	27a17c0e 	strcs	r7, [r1, lr, lsl #24]!
  1009ec:	27b17c0e 	ldrcs	r7, [r1, lr, lsl #24]!
  1009f0:	27c17c0e 	strbcs	r7, [r1, lr, lsl #24]
  1009f4:	27d17c0e 	ldrbcs	r7, [r1, lr, lsl #24]
  1009f8:	27e17c0e 	strbcs	r7, [r1, lr, lsl #24]!
  1009fc:	27f17c0e 	ldrbcs	r7, [r1, lr, lsl #24]!
  100a00:	28017c0e 	stmdacs	r1, {r1, r2, r3, sl, fp, ip, sp, lr}
  100a04:	28117c0e 	ldmdacs	r1, {r1, r2, r3, sl, fp, ip, sp, lr}
  100a08:	28217c0e 	stmdacs	r1!, {r1, r2, r3, sl, fp, ip, sp, lr}
  100a0c:	28317c0e 	ldmdacs	r1!, {r1, r2, r3, sl, fp, ip, sp, lr}
  100a10:	28417c0e 	stmdacs	r1, {r1, r2, r3, sl, fp, ip, sp, lr}^
  100a14:	28517c0e 	ldmdacs	r1, {r1, r2, r3, sl, fp, ip, sp, lr}^
  100a18:	28617c0e 	stmdacs	r1!, {r1, r2, r3, sl, fp, ip, sp, lr}^
  100a1c:	28717c0e 	ldmdacs	r1!, {r1, r2, r3, sl, fp, ip, sp, lr}^
  100a20:	28817c0e 	stmcs	r1, {r1, r2, r3, sl, fp, ip, sp, lr}
  100a24:	28917c0e 	ldmcs	r1, {r1, r2, r3, sl, fp, ip, sp, lr}
  100a28:	28a17c0e 	stmiacs	r1!, {r1, r2, r3, sl, fp, ip, sp, lr}
  100a2c:	28b17c0e 	ldmcs	r1!, {r1, r2, r3, sl, fp, ip, sp, lr}
  100a30:	28c17c0e 	stmiacs	r1, {r1, r2, r3, sl, fp, ip, sp, lr}^
  100a34:	28d17c0e 	ldmcs	r1, {r1, r2, r3, sl, fp, ip, sp, lr}^
  100a38:	28e17c0e 	stmiacs	r1!, {r1, r2, r3, sl, fp, ip, sp, lr}^
  100a3c:	28f17c0e 	ldmcs	r1!, {r1, r2, r3, sl, fp, ip, sp, lr}^
  100a40:	29017c0e 	stmdbcs	r1, {r1, r2, r3, sl, fp, ip, sp, lr}
  100a44:	29117c0e 	ldmdbcs	r1, {r1, r2, r3, sl, fp, ip, sp, lr}
  100a48:	29217c0e 	stmdbcs	r1!, {r1, r2, r3, sl, fp, ip, sp, lr}
  100a4c:	29317c0e 	ldmdbcs	r1!, {r1, r2, r3, sl, fp, ip, sp, lr}
  100a50:	29417c0e 	stmdbcs	r1, {r1, r2, r3, sl, fp, ip, sp, lr}^
  100a54:	29517c0e 	ldmdbcs	r1, {r1, r2, r3, sl, fp, ip, sp, lr}^
  100a58:	29617c0e 	stmdbcs	r1!, {r1, r2, r3, sl, fp, ip, sp, lr}^
  100a5c:	29717c0e 	ldmdbcs	r1!, {r1, r2, r3, sl, fp, ip, sp, lr}^
  100a60:	29817c0e 	stmibcs	r1, {r1, r2, r3, sl, fp, ip, sp, lr}
  100a64:	29917c0e 	ldmibcs	r1, {r1, r2, r3, sl, fp, ip, sp, lr}
  100a68:	29a17c0e 	stmibcs	r1!, {r1, r2, r3, sl, fp, ip, sp, lr}
  100a6c:	29b17c0e 	ldmibcs	r1!, {r1, r2, r3, sl, fp, ip, sp, lr}
  100a70:	29c17c0e 	stmibcs	r1, {r1, r2, r3, sl, fp, ip, sp, lr}^
  100a74:	29d17c0e 	ldmibcs	r1, {r1, r2, r3, sl, fp, ip, sp, lr}^
  100a78:	29e17c0e 	stmibcs	r1!, {r1, r2, r3, sl, fp, ip, sp, lr}^
  100a7c:	29f17c0e 	ldmibcs	r1!, {r1, r2, r3, sl, fp, ip, sp, lr}^
  100a80:	2a017c0e 	bcs	15fac0 <__cpu0_stack_end+0x35250>
  100a84:	2a117c0e 	bcs	55fac4 <__cpu0_stack_end+0x435254>
  100a88:	2a217c0e 	bcs	95fac8 <__cpu0_stack_end+0x835258>
  100a8c:	2a317c0e 	bcs	d5facc <__cpu0_stack_end+0xc3525c>
  100a90:	2a417c0e 	bcs	115fad0 <__cpu0_stack_end+0x1035260>
  100a94:	2a517c0e 	bcs	155fad4 <__cpu0_stack_end+0x1435264>
  100a98:	2a617c0e 	bcs	195fad8 <__cpu0_stack_end+0x1835268>
  100a9c:	2a717c0e 	bcs	1d5fadc <__cpu0_stack_end+0x1c3526c>
  100aa0:	2a817c0e 	bcs	fe15fae0 <__heap_end+0xbe25fae0>
  100aa4:	2a917c0e 	bcs	fe55fae4 <__heap_end+0xbe65fae4>
  100aa8:	2aa17c0e 	bcs	fe95fae8 <__heap_end+0xbea5fae8>
  100aac:	2ab17c0e 	bcs	fed5faec <__heap_end+0xbee5faec>
  100ab0:	2ac17c0e 	bcs	ff15faf0 <__heap_end+0xbf25faf0>
  100ab4:	2ad17c0e 	bcs	ff55faf4 <__heap_end+0xbf65faf4>
  100ab8:	2ae17c0e 	bcs	ff95faf8 <__heap_end+0xbfa5faf8>
  100abc:	2af17c0e 	bcs	ffd5fafc <__heap_end+0xbfe5fafc>
  100ac0:	2b017c0e 	blcs	15fb00 <__cpu0_stack_end+0x35290>
  100ac4:	2b117c0e 	blcs	55fb04 <__cpu0_stack_end+0x435294>
  100ac8:	2b217c0e 	blcs	95fb08 <__cpu0_stack_end+0x835298>
  100acc:	2b317c0e 	blcs	d5fb0c <__cpu0_stack_end+0xc3529c>
  100ad0:	2b417c0e 	blcs	115fb10 <__cpu0_stack_end+0x10352a0>
  100ad4:	2b517c0e 	blcs	155fb14 <__cpu0_stack_end+0x14352a4>
  100ad8:	2b617c0e 	blcs	195fb18 <__cpu0_stack_end+0x18352a8>
  100adc:	2b717c0e 	blcs	1d5fb1c <__cpu0_stack_end+0x1c352ac>
  100ae0:	2b817c0e 	blcs	fe15fb20 <__heap_end+0xbe25fb20>
  100ae4:	2b917c0e 	blcs	fe55fb24 <__heap_end+0xbe65fb24>
  100ae8:	2ba17c0e 	blcs	fe95fb28 <__heap_end+0xbea5fb28>
  100aec:	2bb17c0e 	blcs	fed5fb2c <__heap_end+0xbee5fb2c>
  100af0:	2bc17c0e 	blcs	ff15fb30 <__heap_end+0xbf25fb30>
  100af4:	2bd17c0e 	blcs	ff55fb34 <__heap_end+0xbf65fb34>
  100af8:	2be17c0e 	blcs	ff95fb38 <__heap_end+0xbfa5fb38>
  100afc:	2bf17c0e 	blcs	ffd5fb3c <__heap_end+0xbfe5fb3c>
  100b00:	2c017c0e 	stccs	12, cr7, [r1], {14}
  100b04:	2c117c0e 	ldccs	12, cr7, [r1], {14}
  100b08:	2c217c0e 	stccs	12, cr7, [r1], #-56	; 0xffffffc8
  100b0c:	2c317c0e 	ldccs	12, cr7, [r1], #-56	; 0xffffffc8
  100b10:	2c417c0e 	mcrrcs	12, 0, r7, r1, cr14
  100b14:	2c517c0e 	mrrccs	12, 0, r7, r1, cr14
  100b18:	2c617c0e 	stclcs	12, cr7, [r1], #-56	; 0xffffffc8
  100b1c:	2c717c0e 	ldclcs	12, cr7, [r1], #-56	; 0xffffffc8
  100b20:	2c817c0e 	stccs	12, cr7, [r1], {14}
  100b24:	2c917c0e 	ldccs	12, cr7, [r1], {14}
  100b28:	2ca17c0e 	stccs	12, cr7, [r1], #56	; 0x38
  100b2c:	2cb17c0e 	ldccs	12, cr7, [r1], #56	; 0x38
  100b30:	2cc17c0e 	stclcs	12, cr7, [r1], {14}
  100b34:	2cd17c0e 	ldclcs	12, cr7, [r1], {14}
  100b38:	2ce17c0e 	stclcs	12, cr7, [r1], #56	; 0x38
  100b3c:	2cf17c0e 	ldclcs	12, cr7, [r1], #56	; 0x38
  100b40:	2d017c0e 	stccs	12, cr7, [r1, #-56]	; 0xffffffc8
  100b44:	2d117c0e 	ldccs	12, cr7, [r1, #-56]	; 0xffffffc8
  100b48:	2d217c0e 	stccs	12, cr7, [r1, #-56]!	; 0xffffffc8
  100b4c:	2d317c0e 	ldccs	12, cr7, [r1, #-56]!	; 0xffffffc8
  100b50:	2d417c0e 	stclcs	12, cr7, [r1, #-56]	; 0xffffffc8
  100b54:	2d517c0e 	ldclcs	12, cr7, [r1, #-56]	; 0xffffffc8
  100b58:	2d617c0e 	stclcs	12, cr7, [r1, #-56]!	; 0xffffffc8
  100b5c:	2d717c0e 	ldclcs	12, cr7, [r1, #-56]!	; 0xffffffc8
  100b60:	2d817c0e 	stccs	12, cr7, [r1, #56]	; 0x38
  100b64:	2d917c0e 	ldccs	12, cr7, [r1, #56]	; 0x38
  100b68:	2da17c0e 	stccs	12, cr7, [r1, #56]!	; 0x38
  100b6c:	2db17c0e 	ldccs	12, cr7, [r1, #56]!	; 0x38
  100b70:	2dc17c0e 	stclcs	12, cr7, [r1, #56]	; 0x38
  100b74:	2dd17c0e 	ldclcs	12, cr7, [r1, #56]	; 0x38
  100b78:	2de17c0e 	stclcs	12, cr7, [r1, #56]!	; 0x38
  100b7c:	2df17c0e 	ldclcs	12, cr7, [r1, #56]!	; 0x38
  100b80:	2e017c0e 	cdpcs	12, 0, cr7, cr1, cr14, {0}
  100b84:	2e117c0e 	cdpcs	12, 1, cr7, cr1, cr14, {0}
  100b88:	2e217c0e 	cdpcs	12, 2, cr7, cr1, cr14, {0}
  100b8c:	2e317c0e 	cdpcs	12, 3, cr7, cr1, cr14, {0}
  100b90:	2e417c0e 	cdpcs	12, 4, cr7, cr1, cr14, {0}
  100b94:	2e517c0e 	cdpcs	12, 5, cr7, cr1, cr14, {0}
  100b98:	2e617c0e 	cdpcs	12, 6, cr7, cr1, cr14, {0}
  100b9c:	2e717c0e 	cdpcs	12, 7, cr7, cr1, cr14, {0}
  100ba0:	2e817c0e 	cdpcs	12, 8, cr7, cr1, cr14, {0}
  100ba4:	2e917c0e 	cdpcs	12, 9, cr7, cr1, cr14, {0}
  100ba8:	2ea17c0e 	cdpcs	12, 10, cr7, cr1, cr14, {0}
  100bac:	2eb17c0e 	cdpcs	12, 11, cr7, cr1, cr14, {0}
  100bb0:	2ec17c0e 	cdpcs	12, 12, cr7, cr1, cr14, {0}
  100bb4:	2ed17c0e 	cdpcs	12, 13, cr7, cr1, cr14, {0}
  100bb8:	2ee17c0e 	cdpcs	12, 14, cr7, cr1, cr14, {0}
  100bbc:	2ef17c0e 	cdpcs	12, 15, cr7, cr1, cr14, {0}
  100bc0:	2f017c0e 	svccs	0x00017c0e
  100bc4:	2f117c0e 	svccs	0x00117c0e
  100bc8:	2f217c0e 	svccs	0x00217c0e
  100bcc:	2f317c0e 	svccs	0x00317c0e
  100bd0:	2f417c0e 	svccs	0x00417c0e
  100bd4:	2f517c0e 	svccs	0x00517c0e
  100bd8:	2f617c0e 	svccs	0x00617c0e
  100bdc:	2f717c0e 	svccs	0x00717c0e
  100be0:	2f817c0e 	svccs	0x00817c0e
  100be4:	2f917c0e 	svccs	0x00917c0e
  100be8:	2fa17c0e 	svccs	0x00a17c0e
  100bec:	2fb17c0e 	svccs	0x00b17c0e
  100bf0:	2fc17c0e 	svccs	0x00c17c0e
  100bf4:	2fd17c0e 	svccs	0x00d17c0e
  100bf8:	2fe17c0e 	svccs	0x00e17c0e
  100bfc:	2ff17c0e 	svccs	0x00f17c0e
  100c00:	30017c0e 	andcc	r7, r1, lr, lsl #24
  100c04:	30117c0e 	andscc	r7, r1, lr, lsl #24
  100c08:	30217c0e 	eorcc	r7, r1, lr, lsl #24
  100c0c:	30317c0e 	eorscc	r7, r1, lr, lsl #24
  100c10:	30417c0e 	subcc	r7, r1, lr, lsl #24
  100c14:	30517c0e 	subscc	r7, r1, lr, lsl #24
  100c18:	30617c0e 	rsbcc	r7, r1, lr, lsl #24
  100c1c:	30717c0e 	rsbscc	r7, r1, lr, lsl #24
  100c20:	30817c0e 	addcc	r7, r1, lr, lsl #24
  100c24:	30917c0e 	addscc	r7, r1, lr, lsl #24
  100c28:	30a17c0e 	adccc	r7, r1, lr, lsl #24
  100c2c:	30b17c0e 	adcscc	r7, r1, lr, lsl #24
  100c30:	30c17c0e 	sbccc	r7, r1, lr, lsl #24
  100c34:	30d17c0e 	sbcscc	r7, r1, lr, lsl #24
  100c38:	30e17c0e 	rsccc	r7, r1, lr, lsl #24
  100c3c:	30f17c0e 	rscscc	r7, r1, lr, lsl #24
  100c40:	31017c0e 	tstcc	r1, lr, lsl #24
  100c44:	31117c0e 	tstcc	r1, lr, lsl #24
  100c48:	31217c0e 			; <UNDEFINED> instruction: 0x31217c0e
  100c4c:	31317c0e 	teqcc	r1, lr, lsl #24
  100c50:	31417c0e 	cmpcc	r1, lr, lsl #24
  100c54:	31517c0e 	cmpcc	r1, lr, lsl #24
  100c58:	31617c0e 	cmncc	r1, lr, lsl #24
  100c5c:	31717c0e 	cmncc	r1, lr, lsl #24
  100c60:	31817c0e 	orrcc	r7, r1, lr, lsl #24
  100c64:	31917c0e 	orrscc	r7, r1, lr, lsl #24
  100c68:	31a17c0e 			; <UNDEFINED> instruction: 0x31a17c0e
  100c6c:	31b17c0e 			; <UNDEFINED> instruction: 0x31b17c0e
  100c70:	31c17c0e 	biccc	r7, r1, lr, lsl #24
  100c74:	31d17c0e 	bicscc	r7, r1, lr, lsl #24
  100c78:	31e17c0e 	mvncc	r7, lr, lsl #24
  100c7c:	31f17c0e 	mvnscc	r7, lr, lsl #24
  100c80:	32017c0e 	andcc	r7, r1, #3584	; 0xe00
  100c84:	32117c0e 	andscc	r7, r1, #3584	; 0xe00
  100c88:	32217c0e 	eorcc	r7, r1, #3584	; 0xe00
  100c8c:	32317c0e 	eorscc	r7, r1, #3584	; 0xe00
  100c90:	32417c0e 	subcc	r7, r1, #3584	; 0xe00
  100c94:	32517c0e 	subscc	r7, r1, #3584	; 0xe00
  100c98:	32617c0e 	rsbcc	r7, r1, #3584	; 0xe00
  100c9c:	32717c0e 	rsbscc	r7, r1, #3584	; 0xe00
  100ca0:	32817c0e 	addcc	r7, r1, #3584	; 0xe00
  100ca4:	32917c0e 	addscc	r7, r1, #3584	; 0xe00
  100ca8:	32a17c0e 	adccc	r7, r1, #3584	; 0xe00
  100cac:	32b17c0e 	adcscc	r7, r1, #3584	; 0xe00
  100cb0:	32c17c0e 	sbccc	r7, r1, #3584	; 0xe00
  100cb4:	32d17c0e 	sbcscc	r7, r1, #3584	; 0xe00
  100cb8:	32e17c0e 	rsccc	r7, r1, #3584	; 0xe00
  100cbc:	32f17c0e 	rscscc	r7, r1, #3584	; 0xe00
  100cc0:	33017c0e 	movwcc	r7, #7182	; 0x1c0e
  100cc4:	33117c0e 	tstcc	r1, #3584	; 0xe00
  100cc8:	33217c0e 			; <UNDEFINED> instruction: 0x33217c0e
  100ccc:	33317c0e 	teqcc	r1, #3584	; 0xe00
  100cd0:	33417c0e 	movtcc	r7, #7182	; 0x1c0e
  100cd4:	33517c0e 	cmpcc	r1, #3584	; 0xe00
  100cd8:	33617c0e 	cmncc	r1, #3584	; 0xe00
  100cdc:	33717c0e 	cmncc	r1, #3584	; 0xe00
  100ce0:	33817c0e 	orrcc	r7, r1, #3584	; 0xe00
  100ce4:	33917c0e 	orrscc	r7, r1, #3584	; 0xe00
  100ce8:	33a17c0e 			; <UNDEFINED> instruction: 0x33a17c0e
  100cec:	33b17c0e 			; <UNDEFINED> instruction: 0x33b17c0e
  100cf0:	33c17c0e 	biccc	r7, r1, #3584	; 0xe00
  100cf4:	33d17c0e 	bicscc	r7, r1, #3584	; 0xe00
  100cf8:	33e17c0e 	mvncc	r7, #3584	; 0xe00
  100cfc:	33f17c0e 	mvnscc	r7, #3584	; 0xe00
  100d00:	34017c0e 	strcc	r7, [r1], #-3086	; 0xfffff3f2
  100d04:	34117c0e 	ldrcc	r7, [r1], #-3086	; 0xfffff3f2
  100d08:	34217c0e 	strtcc	r7, [r1], #-3086	; 0xfffff3f2
  100d0c:	34317c0e 	ldrtcc	r7, [r1], #-3086	; 0xfffff3f2
  100d10:	34417c0e 	strbcc	r7, [r1], #-3086	; 0xfffff3f2
  100d14:	34517c0e 	ldrbcc	r7, [r1], #-3086	; 0xfffff3f2
  100d18:	34617c0e 	strbtcc	r7, [r1], #-3086	; 0xfffff3f2
  100d1c:	34717c0e 	ldrbtcc	r7, [r1], #-3086	; 0xfffff3f2
  100d20:	34817c0e 	strcc	r7, [r1], #3086	; 0xc0e
  100d24:	34917c0e 	ldrcc	r7, [r1], #3086	; 0xc0e
  100d28:	34a17c0e 	strtcc	r7, [r1], #3086	; 0xc0e
  100d2c:	34b17c0e 	ldrtcc	r7, [r1], #3086	; 0xc0e
  100d30:	34c17c0e 	strbcc	r7, [r1], #3086	; 0xc0e
  100d34:	34d17c0e 	ldrbcc	r7, [r1], #3086	; 0xc0e
  100d38:	34e17c0e 	strbtcc	r7, [r1], #3086	; 0xc0e
  100d3c:	34f17c0e 	ldrbtcc	r7, [r1], #3086	; 0xc0e
  100d40:	35017c0e 	strcc	r7, [r1, #-3086]	; 0xfffff3f2
  100d44:	35117c0e 	ldrcc	r7, [r1, #-3086]	; 0xfffff3f2
  100d48:	35217c0e 	strcc	r7, [r1, #-3086]!	; 0xfffff3f2
  100d4c:	35317c0e 	ldrcc	r7, [r1, #-3086]!	; 0xfffff3f2
  100d50:	35417c0e 	strbcc	r7, [r1, #-3086]	; 0xfffff3f2
  100d54:	35517c0e 	ldrbcc	r7, [r1, #-3086]	; 0xfffff3f2
  100d58:	35617c0e 	strbcc	r7, [r1, #-3086]!	; 0xfffff3f2
  100d5c:	35717c0e 	ldrbcc	r7, [r1, #-3086]!	; 0xfffff3f2
  100d60:	35817c0e 	strcc	r7, [r1, #3086]	; 0xc0e
  100d64:	35917c0e 	ldrcc	r7, [r1, #3086]	; 0xc0e
  100d68:	35a17c0e 	strcc	r7, [r1, #3086]!	; 0xc0e
  100d6c:	35b17c0e 	ldrcc	r7, [r1, #3086]!	; 0xc0e
  100d70:	35c17c0e 	strbcc	r7, [r1, #3086]	; 0xc0e
  100d74:	35d17c0e 	ldrbcc	r7, [r1, #3086]	; 0xc0e
  100d78:	35e17c0e 	strbcc	r7, [r1, #3086]!	; 0xc0e
  100d7c:	35f17c0e 	ldrbcc	r7, [r1, #3086]!	; 0xc0e
  100d80:	36017c0e 	strcc	r7, [r1], -lr, lsl #24
  100d84:	36117c0e 	ldrcc	r7, [r1], -lr, lsl #24
  100d88:	36217c0e 	strtcc	r7, [r1], -lr, lsl #24
  100d8c:	36317c0e 	ldrtcc	r7, [r1], -lr, lsl #24
  100d90:	36417c0e 	strbcc	r7, [r1], -lr, lsl #24
  100d94:	36517c0e 	ldrbcc	r7, [r1], -lr, lsl #24
  100d98:	36617c0e 	strbtcc	r7, [r1], -lr, lsl #24
  100d9c:	36717c0e 	ldrbtcc	r7, [r1], -lr, lsl #24
  100da0:	36817c0e 	strcc	r7, [r1], lr, lsl #24
  100da4:	36917c0e 	ldrcc	r7, [r1], lr, lsl #24
  100da8:	36a17c0e 	strtcc	r7, [r1], lr, lsl #24
  100dac:	36b17c0e 	ldrtcc	r7, [r1], lr, lsl #24
  100db0:	36c17c0e 	strbcc	r7, [r1], lr, lsl #24
  100db4:	36d17c0e 	ldrbcc	r7, [r1], lr, lsl #24
  100db8:	36e17c0e 	strbtcc	r7, [r1], lr, lsl #24
  100dbc:	36f17c0e 	ldrbtcc	r7, [r1], lr, lsl #24
  100dc0:	37017c0e 	strcc	r7, [r1, -lr, lsl #24]
  100dc4:	37117c0e 	ldrcc	r7, [r1, -lr, lsl #24]
  100dc8:	37217c0e 	strcc	r7, [r1, -lr, lsl #24]!
  100dcc:	37317c0e 	ldrcc	r7, [r1, -lr, lsl #24]!
  100dd0:	37417c0e 	strbcc	r7, [r1, -lr, lsl #24]
  100dd4:	37517c0e 	ldrbcc	r7, [r1, -lr, lsl #24]
  100dd8:	37617c0e 	strbcc	r7, [r1, -lr, lsl #24]!
  100ddc:	37717c0e 	ldrbcc	r7, [r1, -lr, lsl #24]!
  100de0:	37817c0e 	strcc	r7, [r1, lr, lsl #24]
  100de4:	37917c0e 	ldrcc	r7, [r1, lr, lsl #24]
  100de8:	37a17c0e 	strcc	r7, [r1, lr, lsl #24]!
  100dec:	37b17c0e 	ldrcc	r7, [r1, lr, lsl #24]!
  100df0:	37c17c0e 	strbcc	r7, [r1, lr, lsl #24]
  100df4:	37d17c0e 	ldrbcc	r7, [r1, lr, lsl #24]
  100df8:	37e17c0e 	strbcc	r7, [r1, lr, lsl #24]!
  100dfc:	37f17c0e 	ldrbcc	r7, [r1, lr, lsl #24]!
  100e00:	38017c0e 	stmdacc	r1, {r1, r2, r3, sl, fp, ip, sp, lr}
  100e04:	38117c0e 	ldmdacc	r1, {r1, r2, r3, sl, fp, ip, sp, lr}
  100e08:	38217c0e 	stmdacc	r1!, {r1, r2, r3, sl, fp, ip, sp, lr}
  100e0c:	38317c0e 	ldmdacc	r1!, {r1, r2, r3, sl, fp, ip, sp, lr}
  100e10:	38417c0e 	stmdacc	r1, {r1, r2, r3, sl, fp, ip, sp, lr}^
  100e14:	38517c0e 	ldmdacc	r1, {r1, r2, r3, sl, fp, ip, sp, lr}^
  100e18:	38617c0e 	stmdacc	r1!, {r1, r2, r3, sl, fp, ip, sp, lr}^
  100e1c:	38717c0e 	ldmdacc	r1!, {r1, r2, r3, sl, fp, ip, sp, lr}^
  100e20:	38817c0e 	stmcc	r1, {r1, r2, r3, sl, fp, ip, sp, lr}
  100e24:	38917c0e 	ldmcc	r1, {r1, r2, r3, sl, fp, ip, sp, lr}
  100e28:	38a17c0e 	stmiacc	r1!, {r1, r2, r3, sl, fp, ip, sp, lr}
  100e2c:	38b17c0e 	ldmcc	r1!, {r1, r2, r3, sl, fp, ip, sp, lr}
  100e30:	38c17c0e 	stmiacc	r1, {r1, r2, r3, sl, fp, ip, sp, lr}^
  100e34:	38d17c0e 	ldmcc	r1, {r1, r2, r3, sl, fp, ip, sp, lr}^
  100e38:	38e17c0e 	stmiacc	r1!, {r1, r2, r3, sl, fp, ip, sp, lr}^
  100e3c:	38f17c0e 	ldmcc	r1!, {r1, r2, r3, sl, fp, ip, sp, lr}^
  100e40:	39017c0e 	stmdbcc	r1, {r1, r2, r3, sl, fp, ip, sp, lr}
  100e44:	39117c0e 	ldmdbcc	r1, {r1, r2, r3, sl, fp, ip, sp, lr}
  100e48:	39217c0e 	stmdbcc	r1!, {r1, r2, r3, sl, fp, ip, sp, lr}
  100e4c:	39317c0e 	ldmdbcc	r1!, {r1, r2, r3, sl, fp, ip, sp, lr}
  100e50:	39417c0e 	stmdbcc	r1, {r1, r2, r3, sl, fp, ip, sp, lr}^
  100e54:	39517c0e 	ldmdbcc	r1, {r1, r2, r3, sl, fp, ip, sp, lr}^
  100e58:	39617c0e 	stmdbcc	r1!, {r1, r2, r3, sl, fp, ip, sp, lr}^
  100e5c:	39717c0e 	ldmdbcc	r1!, {r1, r2, r3, sl, fp, ip, sp, lr}^
  100e60:	39817c0e 	stmibcc	r1, {r1, r2, r3, sl, fp, ip, sp, lr}
  100e64:	39917c0e 	ldmibcc	r1, {r1, r2, r3, sl, fp, ip, sp, lr}
  100e68:	39a17c0e 	stmibcc	r1!, {r1, r2, r3, sl, fp, ip, sp, lr}
  100e6c:	39b17c0e 	ldmibcc	r1!, {r1, r2, r3, sl, fp, ip, sp, lr}
  100e70:	39c17c0e 	stmibcc	r1, {r1, r2, r3, sl, fp, ip, sp, lr}^
  100e74:	39d17c0e 	ldmibcc	r1, {r1, r2, r3, sl, fp, ip, sp, lr}^
  100e78:	39e17c0e 	stmibcc	r1!, {r1, r2, r3, sl, fp, ip, sp, lr}^
  100e7c:	39f17c0e 	ldmibcc	r1!, {r1, r2, r3, sl, fp, ip, sp, lr}^
  100e80:	3a017c0e 	bcc	15fec0 <__cpu0_stack_end+0x35650>
  100e84:	3a117c0e 	bcc	55fec4 <__cpu0_stack_end+0x435654>
  100e88:	3a217c0e 	bcc	95fec8 <__cpu0_stack_end+0x835658>
  100e8c:	3a317c0e 	bcc	d5fecc <__cpu0_stack_end+0xc3565c>
  100e90:	3a417c0e 	bcc	115fed0 <__cpu0_stack_end+0x1035660>
  100e94:	3a517c0e 	bcc	155fed4 <__cpu0_stack_end+0x1435664>
  100e98:	3a617c0e 	bcc	195fed8 <__cpu0_stack_end+0x1835668>
  100e9c:	3a717c0e 	bcc	1d5fedc <__cpu0_stack_end+0x1c3566c>
  100ea0:	3a817c0e 	bcc	fe15fee0 <__heap_end+0xbe25fee0>
  100ea4:	3a917c0e 	bcc	fe55fee4 <__heap_end+0xbe65fee4>
  100ea8:	3aa17c0e 	bcc	fe95fee8 <__heap_end+0xbea5fee8>
  100eac:	3ab17c0e 	bcc	fed5feec <__heap_end+0xbee5feec>
  100eb0:	3ac17c0e 	bcc	ff15fef0 <__heap_end+0xbf25fef0>
  100eb4:	3ad17c0e 	bcc	ff55fef4 <__heap_end+0xbf65fef4>
  100eb8:	3ae17c0e 	bcc	ff95fef8 <__heap_end+0xbfa5fef8>
  100ebc:	3af17c0e 	bcc	ffd5fefc <__heap_end+0xbfe5fefc>
  100ec0:	3b017c0e 	blcc	15ff00 <__cpu0_stack_end+0x35690>
  100ec4:	3b117c0e 	blcc	55ff04 <__cpu0_stack_end+0x435694>
  100ec8:	3b217c0e 	blcc	95ff08 <__cpu0_stack_end+0x835698>
  100ecc:	3b317c0e 	blcc	d5ff0c <__cpu0_stack_end+0xc3569c>
  100ed0:	3b417c0e 	blcc	115ff10 <__cpu0_stack_end+0x10356a0>
  100ed4:	3b517c0e 	blcc	155ff14 <__cpu0_stack_end+0x14356a4>
  100ed8:	3b617c0e 	blcc	195ff18 <__cpu0_stack_end+0x18356a8>
  100edc:	3b717c0e 	blcc	1d5ff1c <__cpu0_stack_end+0x1c356ac>
  100ee0:	3b817c0e 	blcc	fe15ff20 <__heap_end+0xbe25ff20>
  100ee4:	3b917c0e 	blcc	fe55ff24 <__heap_end+0xbe65ff24>
  100ee8:	3ba17c0e 	blcc	fe95ff28 <__heap_end+0xbea5ff28>
  100eec:	3bb17c0e 	blcc	fed5ff2c <__heap_end+0xbee5ff2c>
  100ef0:	3bc17c0e 	blcc	ff15ff30 <__heap_end+0xbf25ff30>
  100ef4:	3bd17c0e 	blcc	ff55ff34 <__heap_end+0xbf65ff34>
  100ef8:	3be17c0e 	blcc	ff95ff38 <__heap_end+0xbfa5ff38>
  100efc:	3bf17c0e 	blcc	ffd5ff3c <__heap_end+0xbfe5ff3c>
  100f00:	3c017c0e 	stccc	12, cr7, [r1], {14}
  100f04:	3c117c0e 	ldccc	12, cr7, [r1], {14}
  100f08:	3c217c0e 	stccc	12, cr7, [r1], #-56	; 0xffffffc8
  100f0c:	3c317c0e 	ldccc	12, cr7, [r1], #-56	; 0xffffffc8
  100f10:	3c417c0e 	mcrrcc	12, 0, r7, r1, cr14
  100f14:	3c517c0e 	mrrccc	12, 0, r7, r1, cr14
  100f18:	3c617c0e 	stclcc	12, cr7, [r1], #-56	; 0xffffffc8
  100f1c:	3c717c0e 	ldclcc	12, cr7, [r1], #-56	; 0xffffffc8
  100f20:	3c817c0e 	stccc	12, cr7, [r1], {14}
  100f24:	3c917c0e 	ldccc	12, cr7, [r1], {14}
  100f28:	3ca17c0e 	stccc	12, cr7, [r1], #56	; 0x38
  100f2c:	3cb17c0e 	ldccc	12, cr7, [r1], #56	; 0x38
  100f30:	3cc17c0e 	stclcc	12, cr7, [r1], {14}
  100f34:	3cd17c0e 	ldclcc	12, cr7, [r1], {14}
  100f38:	3ce17c0e 	stclcc	12, cr7, [r1], #56	; 0x38
  100f3c:	3cf17c0e 	ldclcc	12, cr7, [r1], #56	; 0x38
  100f40:	3d017c0e 	stccc	12, cr7, [r1, #-56]	; 0xffffffc8
  100f44:	3d117c0e 	ldccc	12, cr7, [r1, #-56]	; 0xffffffc8
  100f48:	3d217c0e 	stccc	12, cr7, [r1, #-56]!	; 0xffffffc8
  100f4c:	3d317c0e 	ldccc	12, cr7, [r1, #-56]!	; 0xffffffc8
  100f50:	3d417c0e 	stclcc	12, cr7, [r1, #-56]	; 0xffffffc8
  100f54:	3d517c0e 	ldclcc	12, cr7, [r1, #-56]	; 0xffffffc8
  100f58:	3d617c0e 	stclcc	12, cr7, [r1, #-56]!	; 0xffffffc8
  100f5c:	3d717c0e 	ldclcc	12, cr7, [r1, #-56]!	; 0xffffffc8
  100f60:	3d817c0e 	stccc	12, cr7, [r1, #56]	; 0x38
  100f64:	3d917c0e 	ldccc	12, cr7, [r1, #56]	; 0x38
  100f68:	3da17c0e 	stccc	12, cr7, [r1, #56]!	; 0x38
  100f6c:	3db17c0e 	ldccc	12, cr7, [r1, #56]!	; 0x38
  100f70:	3dc17c0e 	stclcc	12, cr7, [r1, #56]	; 0x38
  100f74:	3dd17c0e 	ldclcc	12, cr7, [r1, #56]	; 0x38
  100f78:	3de17c0e 	stclcc	12, cr7, [r1, #56]!	; 0x38
  100f7c:	3df17c0e 	ldclcc	12, cr7, [r1, #56]!	; 0x38
  100f80:	3e017c0e 	cdpcc	12, 0, cr7, cr1, cr14, {0}
  100f84:	3e117c0e 	cdpcc	12, 1, cr7, cr1, cr14, {0}
  100f88:	3e217c0e 	cdpcc	12, 2, cr7, cr1, cr14, {0}
  100f8c:	3e317c0e 	cdpcc	12, 3, cr7, cr1, cr14, {0}
  100f90:	3e417c0e 	cdpcc	12, 4, cr7, cr1, cr14, {0}
  100f94:	3e517c0e 	cdpcc	12, 5, cr7, cr1, cr14, {0}
  100f98:	3e617c0e 	cdpcc	12, 6, cr7, cr1, cr14, {0}
  100f9c:	3e717c0e 	cdpcc	12, 7, cr7, cr1, cr14, {0}
  100fa0:	3e817c0e 	cdpcc	12, 8, cr7, cr1, cr14, {0}
  100fa4:	3e917c0e 	cdpcc	12, 9, cr7, cr1, cr14, {0}
  100fa8:	3ea17c0e 	cdpcc	12, 10, cr7, cr1, cr14, {0}
  100fac:	3eb17c0e 	cdpcc	12, 11, cr7, cr1, cr14, {0}
  100fb0:	3ec17c0e 	cdpcc	12, 12, cr7, cr1, cr14, {0}
  100fb4:	3ed17c0e 	cdpcc	12, 13, cr7, cr1, cr14, {0}
  100fb8:	3ee17c0e 	cdpcc	12, 14, cr7, cr1, cr14, {0}
  100fbc:	3ef17c0e 	cdpcc	12, 15, cr7, cr1, cr14, {0}
  100fc0:	3f017c0e 	svccc	0x00017c0e
  100fc4:	3f117c0e 	svccc	0x00117c0e
  100fc8:	3f217c0e 	svccc	0x00217c0e
  100fcc:	3f317c0e 	svccc	0x00317c0e
  100fd0:	3f417c0e 	svccc	0x00417c0e
  100fd4:	3f517c0e 	svccc	0x00517c0e
  100fd8:	3f617c0e 	svccc	0x00617c0e
  100fdc:	3f717c0e 	svccc	0x00717c0e
  100fe0:	3f817c0e 	svccc	0x00817c0e
  100fe4:	3f917c0e 	svccc	0x00917c0e
  100fe8:	3fa17c0e 	svccc	0x00a17c0e
  100fec:	3fb17c0e 	svccc	0x00b17c0e
  100ff0:	3fc17c0e 	svccc	0x00c17c0e
  100ff4:	3fd17c0e 	svccc	0x00d17c0e
  100ff8:	3fe17c0e 	svccc	0x00e17c0e
  100ffc:	3ff10c06 	svccc	0x00f10c06
	...
  103800:	e0010c16 	and	r0, r1, r6, lsl ip
  103804:	e0110c16 	ands	r0, r1, r6, lsl ip
  103808:	e0210c16 	eor	r0, r1, r6, lsl ip
	...
  103e00:	f8010c16 			; <UNDEFINED> instruction: 0xf8010c16
  103e04:	f8110c16 			; <UNDEFINED> instruction: 0xf8110c16
  103e08:	f8210c16 			; <UNDEFINED> instruction: 0xf8210c16
  103e0c:	f8310c16 			; <UNDEFINED> instruction: 0xf8310c16
  103e10:	f8410c16 			; <UNDEFINED> instruction: 0xf8410c16
  103e14:	f8510c16 			; <UNDEFINED> instruction: 0xf8510c16
  103e18:	f8610c16 			; <UNDEFINED> instruction: 0xf8610c16
  103e1c:	f8710c16 			; <UNDEFINED> instruction: 0xf8710c16
  103e20:	f8810c16 			; <UNDEFINED> instruction: 0xf8810c16
  103e24:	f8910c16 			; <UNDEFINED> instruction: 0xf8910c16
  103e28:	f8a10c16 			; <UNDEFINED> instruction: 0xf8a10c16
  103e2c:	f8b10c16 			; <UNDEFINED> instruction: 0xf8b10c16
  103e30:	f8c10c16 			; <UNDEFINED> instruction: 0xf8c10c16
  103e34:	f8d10c16 			; <UNDEFINED> instruction: 0xf8d10c16
  103e38:	f8e10c16 			; <UNDEFINED> instruction: 0xf8e10c16
  103e3c:	f8f10c16 			; <UNDEFINED> instruction: 0xf8f10c16
	...
  103fc0:	ff010c16 			; <UNDEFINED> instruction: 0xff010c16
  103fc4:	ff110c16 			; <UNDEFINED> instruction: 0xff110c16
  103fc8:	ff210c16 			; <UNDEFINED> instruction: 0xff210c16
  103fcc:	ff310c16 			; <UNDEFINED> instruction: 0xff310c16
  103fd0:	ff410c16 			; <UNDEFINED> instruction: 0xff410c16
  103fd4:	ff510c16 			; <UNDEFINED> instruction: 0xff510c16
  103fd8:	ff610c16 			; <UNDEFINED> instruction: 0xff610c16
  103fdc:	ff710c16 			; <UNDEFINED> instruction: 0xff710c16
  103fe0:	ff810c16 			; <UNDEFINED> instruction: 0xff810c16
  103fe4:	ff910c16 			; <UNDEFINED> instruction: 0xff910c16
  103fe8:	ffa10c16 			; <UNDEFINED> instruction: 0xffa10c16
  103fec:	ffb10c16 			; <UNDEFINED> instruction: 0xffb10c16
  103ff0:	ffc10c16 			; <UNDEFINED> instruction: 0xffc10c16
  103ff4:	ffd10c16 			; <UNDEFINED> instruction: 0xffd10c16
  103ff8:	ffe10c16 			; <UNDEFINED> instruction: 0xffe10c16
  103ffc:	fff10c16 			; <UNDEFINED> instruction: 0xfff10c16

00104000 <__traps>:
  104000:	ea000006 	b	104020 <__start_ram>
  104004:	ea0029d4 	b	10e75c <__gnat_undef_trap>

00104008 <__gnat_svc_trap>:
  104008:	eafffffe 	b	104008 <__gnat_svc_trap>

0010400c <__gnat_pabt_trap>:
  10400c:	eafffffe 	b	10400c <__gnat_pabt_trap>
  104010:	ea0029c8 	b	10e738 <__gnat_dabt_trap>
  104014:	e320f000 	nop	{0}
  104018:	ea002a1c 	b	10e890 <__gnat_irq_trap>
  10401c:	ea002a50 	b	10e964 <__gnat_fiq_trap>

00104020 <__start_ram>:
  104020:	f1020013 	cps	#19
  104024:	e59fd174 	ldr	sp, [pc, #372]	; 1041a0 <svcSp0>
  104028:	f1020017 	cps	#23
  10402c:	e59fd170 	ldr	sp, [pc, #368]	; 1041a4 <abortSp0>
  104030:	f102001b 	cps	#27
  104034:	e59fd16c 	ldr	sp, [pc, #364]	; 1041a8 <undefSp0>
  104038:	f1020011 	cps	#17
  10403c:	e59fd168 	ldr	sp, [pc, #360]	; 1041ac <fiqSp0>
  104040:	f1020012 	cps	#18
  104044:	e59fd164 	ldr	sp, [pc, #356]	; 1041b0 <irqSp0>
  104048:	f102001f 	cps	#31
  10404c:	e59fd160 	ldr	sp, [pc, #352]	; 1041b4 <userSp0>
  104050:	e3000202 	movw	r0, #514	; 0x202
  104054:	e3400002 	movt	r0, #2
  104058:	e3001a1c 	movw	r1, #2588	; 0xa1c
  10405c:	e34f1800 	movt	r1, #63488	; 0xf800
  104060:	e5810000 	str	r0, [r1]
  104064:	e3a00007 	mov	r0, #7
  104068:	e3001000 	movw	r1, #0
  10406c:	e34f18f0 	movt	r1, #63728	; 0xf8f0
  104070:	e5810000 	str	r0, [r1]
  104074:	eb00000b 	bl	1040a8 <L_coreInit>
  104078:	e3040dc0 	movw	r0, #19904	; 0x4dc0
  10407c:	e3400011 	movt	r0, #17
  104080:	e30216ac 	movw	r1, #9900	; 0x26ac
  104084:	e3401000 	movt	r1, #0
  104088:	e3a02000 	mov	r2, #0
  10408c:	e3510000 	cmp	r1, #0
  104090:	0a000002 	beq	1040a0 <__start_ram+0x80>
  104094:	e4802004 	str	r2, [r0], #4
  104098:	e2511001 	subs	r1, r1, #1
  10409c:	1afffffc 	bne	104094 <__start_ram+0x74>
  1040a0:	eb000141 	bl	1045ac <main>
  1040a4:	eb0020db 	bl	10c418 <_exit>

001040a8 <L_coreInit>:
  1040a8:	ee110f50 	mrc	15, 0, r0, cr1, cr0, {2}
  1040ac:	e380060f 	orr	r0, r0, #15728640	; 0xf00000
  1040b0:	ee010f50 	mcr	15, 0, r0, cr1, cr0, {2}
  1040b4:	e3a00101 	mov	r0, #1073741824	; 0x40000000
  1040b8:	eee80a10 	vmsr	fpexc, r0
  1040bc:	e24f00c4 	sub	r0, pc, #196	; 0xc4
  1040c0:	ee0c0f10 	mcr	15, 0, r0, cr12, cr0, {0}
  1040c4:	e3a02000 	mov	r2, #0
  1040c8:	ee082f17 	mcr	15, 0, r2, cr8, cr7, {0}
  1040cc:	ee072f15 	mcr	15, 0, r2, cr7, cr5, {0}
  1040d0:	ee072fd5 	mcr	15, 0, r2, cr7, cr5, {6}
  1040d4:	ee300f30 	mrc	15, 1, r0, cr0, cr0, {1}
  1040d8:	e2103407 	ands	r3, r0, #117440512	; 0x7000000
  1040dc:	e1a03ba3 	lsr	r3, r3, #23
  1040e0:	0a00001a 	beq	104150 <L_coreInit+0xa8>
  1040e4:	e3a0a000 	mov	sl, #0
  1040e8:	e08a20aa 	add	r2, sl, sl, lsr #1
  1040ec:	e1a01230 	lsr	r1, r0, r2
  1040f0:	e2011007 	and	r1, r1, #7
  1040f4:	e3510002 	cmp	r1, #2
  1040f8:	ba000011 	blt	104144 <L_coreInit+0x9c>
  1040fc:	ee40af10 	mcr	15, 2, sl, cr0, cr0, {0}
  104100:	f57ff06f 	isb	sy
  104104:	ee301f10 	mrc	15, 1, r1, cr0, cr0, {0}
  104108:	e2012007 	and	r2, r1, #7
  10410c:	e2822004 	add	r2, r2, #4
  104110:	e59f410c 	ldr	r4, [pc, #268]	; 104224 <__kick_cpu1+0x14>
  104114:	e01441a1 	ands	r4, r4, r1, lsr #3
  104118:	e16f5f14 	clz	r5, r4
  10411c:	e59f7104 	ldr	r7, [pc, #260]	; 104228 <__kick_cpu1+0x18>
  104120:	e01776a1 	ands	r7, r7, r1, lsr #13
  104124:	e1a09004 	mov	r9, r4
  104128:	e18ab519 	orr	fp, sl, r9, lsl r5
  10412c:	e18bb217 	orr	fp, fp, r7, lsl r2
  104130:	ee07bf56 	mcr	15, 0, fp, cr7, cr6, {2}
  104134:	e2599001 	subs	r9, r9, #1
  104138:	aafffffa 	bge	104128 <L_coreInit+0x80>
  10413c:	e2577001 	subs	r7, r7, #1
  104140:	aafffff7 	bge	104124 <L_coreInit+0x7c>
  104144:	e28aa002 	add	sl, sl, #2
  104148:	e153000a 	cmp	r3, sl
  10414c:	caffffe5 	bgt	1040e8 <L_coreInit+0x40>
  104150:	ee111f30 	mrc	15, 0, r1, cr1, cr0, {1}
  104154:	e3811047 	orr	r1, r1, #71	; 0x47
  104158:	ee011f30 	mcr	15, 0, r1, cr1, cr0, {1}
  10415c:	e24f0064 	sub	r0, pc, #100	; 0x64
  104160:	e2400c41 	sub	r0, r0, #16640	; 0x4100
  104164:	e380005b 	orr	r0, r0, #91	; 0x5b
  104168:	ee020f10 	mcr	15, 0, r0, cr2, cr0, {0}
  10416c:	e3a01000 	mov	r1, #0
  104170:	ee021f50 	mcr	15, 0, r1, cr2, cr0, {2}
  104174:	ee0d1f30 	mcr	15, 0, r1, cr13, cr0, {1}
  104178:	e3a01001 	mov	r1, #1
  10417c:	ee031f10 	mcr	15, 0, r1, cr3, cr0, {0}
  104180:	ee111f10 	mrc	15, 0, r1, cr1, cr0, {0}
  104184:	e3012005 	movw	r2, #4101	; 0x1005
  104188:	e1811002 	orr	r1, r1, r2
  10418c:	e3c11203 	bic	r1, r1, #805306368	; 0x30000000
  104190:	ee011f10 	mcr	15, 0, r1, cr1, cr0, {0}
  104194:	f57ff04f 	dsb	sy
  104198:	f57ff06f 	isb	sy
  10419c:	e12fff1e 	bx	lr

001041a0 <svcSp0>:
  1041a0:	0011eb70 	andseq	lr, r1, r0, ror fp

001041a4 <abortSp0>:
  1041a4:	0011e970 	andseq	lr, r1, r0, ror r9

001041a8 <undefSp0>:
  1041a8:	0011ea70 	andseq	lr, r1, r0, ror sl

001041ac <fiqSp0>:
  1041ac:	0011ec70 	andseq	lr, r1, r0, ror ip

001041b0 <irqSp0>:
  1041b0:	0011fc70 	andseq	pc, r1, r0, ror ip	; <UNPREDICTABLE>

001041b4 <userSp0>:
  1041b4:	0012a870 	andseq	sl, r2, r0, ror r8

001041b8 <__start_cpu1>:
  1041b8:	f1020013 	cps	#19
  1041bc:	e59fd034 	ldr	sp, [pc, #52]	; 1041f8 <svcSp1>
  1041c0:	f1020017 	cps	#23
  1041c4:	e59fd030 	ldr	sp, [pc, #48]	; 1041fc <abortSp1>
  1041c8:	f102001b 	cps	#27
  1041cc:	e59fd02c 	ldr	sp, [pc, #44]	; 104200 <undefSp1>
  1041d0:	f1020011 	cps	#17
  1041d4:	e59fd028 	ldr	sp, [pc, #40]	; 104204 <fiqSp1>
  1041d8:	f1020012 	cps	#18
  1041dc:	e59fd024 	ldr	sp, [pc, #36]	; 104208 <irqSp1>
  1041e0:	f102001f 	cps	#31
  1041e4:	e59fd020 	ldr	sp, [pc, #32]	; 10420c <userSp1>
  1041e8:	ebffffae 	bl	1040a8 <L_coreInit>
  1041ec:	eb001745 	bl	109f08 <__gnat_initialize_cpu_devices>
  1041f0:	e3a00002 	mov	r0, #2
  1041f4:	eb002d75 	bl	10f7d0 <__gnat_initialize_slave>

001041f8 <svcSp1>:
  1041f8:	0011ff70 	andseq	pc, r1, r0, ror pc	; <UNPREDICTABLE>

001041fc <abortSp1>:
  1041fc:	0011fd70 	andseq	pc, r1, r0, ror sp	; <UNPREDICTABLE>

00104200 <undefSp1>:
  104200:	0011fe70 	andseq	pc, r1, r0, ror lr	; <UNPREDICTABLE>

00104204 <fiqSp1>:
  104204:	00120070 	andseq	r0, r2, r0, ror r0

00104208 <irqSp1>:
  104208:	00120870 	andseq	r0, r2, r0, ror r8

0010420c <userSp1>:
  10420c:	00125870 	andseq	r5, r2, r0, ror r8

00104210 <__kick_cpu1>:
  104210:	e3e0100f 	mvn	r1, #15
  104214:	e24f0064 	sub	r0, pc, #100	; 0x64
  104218:	e5810000 	str	r0, [r1]
  10421c:	e320f004 	sev
  104220:	e12fff1e 	bx	lr
  104224:	000003ff 	strdeq	r0, [r0], -pc	; <UNPREDICTABLE>
  104228:	00007fff 	strdeq	r7, [r0], -pc	; <UNPREDICTABLE>

0010422c <_ada_scenario_1>:
  10422c:	e92d4800 	push	{fp, lr}
  104230:	e28db004 	add	fp, sp, #4
  104234:	eb000190 	bl	10487c <periodic_tasks__init>

00104238 <ada_main__Tsec_default_sized_stacksBIP>:
  104238:	e92d4870 	push	{r4, r5, r6, fp, lr}
  10423c:	e28db010 	add	fp, sp, #16
  104240:	e24dd00c 	sub	sp, sp, #12
  104244:	e14b01fc 	strd	r0, [fp, #-28]	; 0xffffffe4
  104248:	e51b3018 	ldr	r3, [fp, #-24]	; 0xffffffe8
  10424c:	e5933000 	ldr	r3, [r3]
  104250:	e1a06003 	mov	r6, r3
  104254:	e51b3018 	ldr	r3, [fp, #-24]	; 0xffffffe8
  104258:	e5934000 	ldr	r4, [r3]
  10425c:	e51b3018 	ldr	r3, [fp, #-24]	; 0xffffffe8
  104260:	e5935004 	ldr	r5, [r3, #4]
  104264:	e1540005 	cmp	r4, r5
  104268:	ca00000e 	bgt	1042a8 <ada_main__Tsec_default_sized_stacksBIP+0x70>
  10426c:	e51b101c 	ldr	r1, [fp, #-28]	; 0xffffffe4
  104270:	e1a03004 	mov	r3, r4
  104274:	e0432006 	sub	r2, r3, r6
  104278:	e1a03002 	mov	r3, r2
  10427c:	e1a03403 	lsl	r3, r3, #8
  104280:	e0833002 	add	r3, r3, r2
  104284:	e1a03203 	lsl	r3, r3, #4
  104288:	e0813003 	add	r3, r1, r3
  10428c:	e3a01a01 	mov	r1, #4096	; 0x1000
  104290:	e1a00003 	mov	r0, r3
  104294:	eb0020c3 	bl	10c5a8 <system__secondary_stack__ss_stackIP>
  104298:	e1540005 	cmp	r4, r5
  10429c:	0a000001 	beq	1042a8 <ada_main__Tsec_default_sized_stacksBIP+0x70>
  1042a0:	e2844001 	add	r4, r4, #1
  1042a4:	eafffff0 	b	10426c <ada_main__Tsec_default_sized_stacksBIP+0x34>
  1042a8:	e24bd010 	sub	sp, fp, #16
  1042ac:	e8bd8870 	pop	{r4, r5, r6, fp, pc}

001042b0 <adafinal>:
  1042b0:	e92d4800 	push	{fp, lr}
  1042b4:	e28db004 	add	fp, sp, #4
  1042b8:	e3043382 	movw	r3, #17282	; 0x4382
  1042bc:	e3403011 	movt	r3, #17
  1042c0:	e5d33000 	ldrb	r3, [r3]
  1042c4:	e2233001 	eor	r3, r3, #1
  1042c8:	e6ef3073 	uxtb	r3, r3
  1042cc:	e3530000 	cmp	r3, #0
  1042d0:	1a000006 	bne	1042f0 <adafinal+0x40>
  1042d4:	e3043382 	movw	r3, #17282	; 0x4382
  1042d8:	e3403011 	movt	r3, #17
  1042dc:	e3a02000 	mov	r2, #0
  1042e0:	e5c32000 	strb	r2, [r3]
  1042e4:	eb002000 	bl	10c2ec <__gnat_runtime_finalize>
  1042e8:	eb00217d 	bl	10c8e4 <system__standard_library__adafinal>
  1042ec:	ea000000 	b	1042f4 <adafinal+0x44>
  1042f0:	e320f000 	nop	{0}
  1042f4:	e8bd8800 	pop	{fp, pc}

001042f8 <adainit>:
  1042f8:	e92d4800 	push	{fp, lr}
  1042fc:	e28db004 	add	fp, sp, #4
  104300:	e3043382 	movw	r3, #17282	; 0x4382
  104304:	e3403011 	movt	r3, #17
  104308:	e5d33000 	ldrb	r3, [r3]
  10430c:	e3530000 	cmp	r3, #0
  104310:	1a0000a3 	bne	1045a4 <adainit+0x2ac>
  104314:	e3043382 	movw	r3, #17282	; 0x4382
  104318:	e3403011 	movt	r3, #17
  10431c:	e3a02001 	mov	r2, #1
  104320:	e5c32000 	strb	r2, [r3]
  104324:	e3043534 	movw	r3, #17716	; 0x4534
  104328:	e3403011 	movt	r3, #17
  10432c:	e3a02000 	mov	r2, #0
  104330:	e5832000 	str	r2, [r3]
  104334:	e304344c 	movw	r3, #17484	; 0x444c
  104338:	e3403011 	movt	r3, #17
  10433c:	e3a02000 	mov	r2, #0
  104340:	e5832000 	str	r2, [r3]
  104344:	e3043454 	movw	r3, #17492	; 0x4454
  104348:	e3403011 	movt	r3, #17
  10434c:	e3a02062 	mov	r2, #98	; 0x62
  104350:	e5c32000 	strb	r2, [r3]
  104354:	e3043430 	movw	r3, #17456	; 0x4430
  104358:	e3403011 	movt	r3, #17
  10435c:	e3a02043 	mov	r2, #67	; 0x43
  104360:	e5c32000 	strb	r2, [r3]
  104364:	e3043440 	movw	r3, #17472	; 0x4440
  104368:	e3403011 	movt	r3, #17
  10436c:	e3a02020 	mov	r2, #32
  104370:	e5c32000 	strb	r2, [r3]
  104374:	e3043448 	movw	r3, #17480	; 0x4448
  104378:	e3403011 	movt	r3, #17
  10437c:	e3a02046 	mov	r2, #70	; 0x46
  104380:	e5c32000 	strb	r2, [r3]
  104384:	e304343c 	movw	r3, #17468	; 0x443c
  104388:	e3403011 	movt	r3, #17
  10438c:	e3022014 	movw	r2, #8212	; 0x2014
  104390:	e3402011 	movt	r2, #17
  104394:	e5832000 	str	r2, [r3]
  104398:	e3043438 	movw	r3, #17464	; 0x4438
  10439c:	e3403011 	movt	r3, #17
  1043a0:	e3a02000 	mov	r2, #0
  1043a4:	e5832000 	str	r2, [r3]
  1043a8:	e3043530 	movw	r3, #17712	; 0x4530
  1043ac:	e3403011 	movt	r3, #17
  1043b0:	e3e02000 	mvn	r2, #0
  1043b4:	e5832000 	str	r2, [r3]
  1043b8:	e3043428 	movw	r3, #17448	; 0x4428
  1043bc:	e3403011 	movt	r3, #17
  1043c0:	e3022018 	movw	r2, #8216	; 0x2018
  1043c4:	e3402011 	movt	r2, #17
  1043c8:	e5832000 	str	r2, [r3]
  1043cc:	e3043434 	movw	r3, #17460	; 0x4434
  1043d0:	e3403011 	movt	r3, #17
  1043d4:	e3a02000 	mov	r2, #0
  1043d8:	e5832000 	str	r2, [r3]
  1043dc:	e3043450 	movw	r3, #17488	; 0x4450
  1043e0:	e3403011 	movt	r3, #17
  1043e4:	e3a02000 	mov	r2, #0
  1043e8:	e5832000 	str	r2, [r3]
  1043ec:	e304341c 	movw	r3, #17436	; 0x441c
  1043f0:	e3403011 	movt	r3, #17
  1043f4:	e3a02001 	mov	r2, #1
  1043f8:	e5832000 	str	r2, [r3]
  1043fc:	e3043418 	movw	r3, #17432	; 0x4418
  104400:	e3403011 	movt	r3, #17
  104404:	e3e02000 	mvn	r2, #0
  104408:	e5832000 	str	r2, [r3]
  10440c:	e304342c 	movw	r3, #17452	; 0x442c
  104410:	e3403011 	movt	r3, #17
  104414:	e3a02000 	mov	r2, #0
  104418:	e5832000 	str	r2, [r3]
  10441c:	eb000071 	bl	1045e8 <ada_main___elabb>
  104420:	e30d380c 	movw	r3, #55308	; 0xd80c
  104424:	e3403011 	movt	r3, #17
  104428:	e3a02a01 	mov	r2, #4096	; 0x1000
  10442c:	e5832000 	str	r2, [r3]
  104430:	e30d3804 	movw	r3, #55300	; 0xd804
  104434:	e3403011 	movt	r3, #17
  104438:	e3a02002 	mov	r2, #2
  10443c:	e5832000 	str	r2, [r3]
  104440:	e3042dc0 	movw	r2, #19904	; 0x4dc0
  104444:	e3402011 	movt	r2, #17
  104448:	e30d3808 	movw	r3, #55304	; 0xd808
  10444c:	e3403011 	movt	r3, #17
  104450:	e5832000 	str	r2, [r3]
  104454:	e3a00001 	mov	r0, #1
  104458:	eb001f9f 	bl	10c2dc <__gnat_runtime_initialize>
  10445c:	eb00140d 	bl	109498 <ada__text_io___elabb>
  104460:	e30433bc 	movw	r3, #17340	; 0x43bc
  104464:	e3403011 	movt	r3, #17
  104468:	e1d330b0 	ldrh	r3, [r3]
  10446c:	e6bf3073 	sxth	r3, r3
  104470:	e2833001 	add	r3, r3, #1
  104474:	e6bf2073 	sxth	r2, r3
  104478:	e30433bc 	movw	r3, #17340	; 0x43bc
  10447c:	e3403011 	movt	r3, #17
  104480:	e1c320b0 	strh	r2, [r3]
  104484:	eb002108 	bl	10c8ac <system__soft_links___elabs>
  104488:	eb001f2a 	bl	10c138 <system__exception_table___elabb>
  10448c:	e304340e 	movw	r3, #17422	; 0x440e
  104490:	e3403011 	movt	r3, #17
  104494:	e1d330b0 	ldrh	r3, [r3]
  104498:	e6bf3073 	sxth	r3, r3
  10449c:	e2833001 	add	r3, r3, #1
  1044a0:	e6bf2073 	sxth	r2, r3
  1044a4:	e304340e 	movw	r3, #17422	; 0x440e
  1044a8:	e3403011 	movt	r3, #17
  1044ac:	e1c320b0 	strh	r2, [r3]
  1044b0:	eb0013bc 	bl	1093a8 <ada__tags___elabb>
  1044b4:	e304339a 	movw	r3, #17306	; 0x439a
  1044b8:	e3403011 	movt	r3, #17
  1044bc:	e1d330b0 	ldrh	r3, [r3]
  1044c0:	e6bf3073 	sxth	r3, r3
  1044c4:	e2833001 	add	r3, r3, #1
  1044c8:	e6bf2073 	sxth	r2, r3
  1044cc:	e304339a 	movw	r3, #17306	; 0x439a
  1044d0:	e3403011 	movt	r3, #17
  1044d4:	e1c320b0 	strh	r2, [r3]
  1044d8:	eb001ab9 	bl	10afc4 <system__bb__timing_events___elabs>
  1044dc:	e30433e0 	movw	r3, #17376	; 0x43e0
  1044e0:	e3403011 	movt	r3, #17
  1044e4:	e1d330b0 	ldrh	r3, [r3]
  1044e8:	e6bf3073 	sxth	r3, r3
  1044ec:	e2833001 	add	r3, r3, #1
  1044f0:	e6bf2073 	sxth	r2, r3
  1044f4:	e30433e0 	movw	r3, #17376	; 0x43e0
  1044f8:	e3403011 	movt	r3, #17
  1044fc:	e1c320b0 	strh	r2, [r3]
  104500:	e3043464 	movw	r3, #17508	; 0x4464
  104504:	e3403011 	movt	r3, #17
  104508:	e1d330b0 	ldrh	r3, [r3]
  10450c:	e6bf3073 	sxth	r3, r3
  104510:	e2833001 	add	r3, r3, #1
  104514:	e6bf2073 	sxth	r2, r3
  104518:	e3043464 	movw	r3, #17508	; 0x4464
  10451c:	e3403011 	movt	r3, #17
  104520:	e1c320b0 	strh	r2, [r3]
  104524:	eb000e45 	bl	107e40 <ada__real_time___elabb>
  104528:	e3043396 	movw	r3, #17302	; 0x4396
  10452c:	e3403011 	movt	r3, #17
  104530:	e1d330b0 	ldrh	r3, [r3]
  104534:	e6bf3073 	sxth	r3, r3
  104538:	e2833001 	add	r3, r3, #1
  10453c:	e6bf2073 	sxth	r2, r3
  104540:	e3043396 	movw	r3, #17302	; 0x4396
  104544:	e3403011 	movt	r3, #17
  104548:	e1c320b0 	strh	r2, [r3]
  10454c:	eb0021f1 	bl	10cd18 <system__tasking__restricted__stages___elabb>
  104550:	e304351e 	movw	r3, #17694	; 0x451e
  104554:	e3403011 	movt	r3, #17
  104558:	e1d330b0 	ldrh	r3, [r3]
  10455c:	e6bf3073 	sxth	r3, r3
  104560:	e2833001 	add	r3, r3, #1
  104564:	e6bf2073 	sxth	r2, r3
  104568:	e304351e 	movw	r3, #17694	; 0x451e
  10456c:	e3403011 	movt	r3, #17
  104570:	e1c320b0 	strh	r2, [r3]
  104574:	eb0000ca 	bl	1048a4 <periodic_tasks___elabb>
  104578:	e3043384 	movw	r3, #17284	; 0x4384
  10457c:	e3403011 	movt	r3, #17
  104580:	e1d330b0 	ldrh	r3, [r3]
  104584:	e6bf3073 	sxth	r3, r3
  104588:	e2833001 	add	r3, r3, #1
  10458c:	e6bf2073 	sxth	r2, r3
  104590:	e3043384 	movw	r3, #17284	; 0x4384
  104594:	e3403011 	movt	r3, #17
  104598:	e1c320b0 	strh	r2, [r3]
  10459c:	eb001d27 	bl	10ba40 <__gnat_start_slave_cpus>
  1045a0:	ea000000 	b	1045a8 <adainit+0x2b0>
  1045a4:	e320f000 	nop	{0}
  1045a8:	e8bd8800 	pop	{fp, pc}

001045ac <main>:
  1045ac:	e92d4800 	push	{fp, lr}
  1045b0:	e28db004 	add	fp, sp, #4
  1045b4:	e24dd010 	sub	sp, sp, #16
  1045b8:	e3023004 	movw	r3, #8196	; 0x2004
  1045bc:	e3403011 	movt	r3, #17
  1045c0:	e50b3010 	str	r3, [fp, #-16]
  1045c4:	e24b300c 	sub	r3, fp, #12
  1045c8:	e1a00003 	mov	r0, r3
  1045cc:	eb001f40 	bl	10c2d4 <__gnat_initialize>
  1045d0:	ebffff48 	bl	1042f8 <adainit>
  1045d4:	ebffff14 	bl	10422c <_ada_scenario_1>
  1045d8:	ebffff34 	bl	1042b0 <adafinal>
  1045dc:	eb001f3b 	bl	10c2d0 <__gnat_finalize>
  1045e0:	e24bd004 	sub	sp, fp, #4
  1045e4:	e8bd8800 	pop	{fp, pc}

001045e8 <ada_main___elabb>:
  1045e8:	e92d4800 	push	{fp, lr}
  1045ec:	e28db004 	add	fp, sp, #4
  1045f0:	e3042dc0 	movw	r2, #19904	; 0x4dc0
  1045f4:	e3402011 	movt	r2, #17
  1045f8:	e3013fd0 	movw	r3, #8144	; 0x1fd0
  1045fc:	e3403011 	movt	r3, #17
  104600:	e1a00002 	mov	r0, r2
  104604:	e1a01003 	mov	r1, r3
  104608:	ebffff0a 	bl	104238 <ada_main__Tsec_default_sized_stacksBIP>
  10460c:	e8bd8800 	pop	{fp, pc}

00104610 <periodic_tasks__periodic_first_cpuVIP>:
  104610:	e24dd008 	sub	sp, sp, #8
  104614:	e92d4870 	push	{r4, r5, r6, fp, lr}
  104618:	e28db010 	add	fp, sp, #16
  10461c:	e24dd044 	sub	sp, sp, #68	; 0x44
  104620:	e50b0018 	str	r0, [fp, #-24]	; 0xffffffe8
  104624:	e50b101c 	str	r1, [fp, #-28]	; 0xffffffe4
  104628:	e50b2020 	str	r2, [fp, #-32]	; 0xffffffe0
  10462c:	e58b3008 	str	r3, [fp, #8]
  104630:	e24b302c 	sub	r3, fp, #44	; 0x2c
  104634:	e28b2008 	add	r2, fp, #8
  104638:	e8920003 	ldm	r2, {r0, r1}
  10463c:	e8830003 	stm	r3, {r0, r1}
  104640:	e51b3018 	ldr	r3, [fp, #-24]	; 0xffffffe8
  104644:	e59b2010 	ldr	r2, [fp, #16]
  104648:	e5832000 	str	r2, [r3]
  10464c:	e51b3018 	ldr	r3, [fp, #-24]	; 0xffffffe8
  104650:	e59b2014 	ldr	r2, [fp, #20]
  104654:	e5832004 	str	r2, [r3, #4]
  104658:	e51b3018 	ldr	r3, [fp, #-24]	; 0xffffffe8
  10465c:	e3a02000 	mov	r2, #0
  104660:	e5832008 	str	r2, [r3, #8]
  104664:	e51b3018 	ldr	r3, [fp, #-24]	; 0xffffffe8
  104668:	e2833a05 	add	r3, r3, #20480	; 0x5000
  10466c:	e1a02003 	mov	r2, r3
  104670:	e59b3010 	ldr	r3, [fp, #16]
  104674:	e5823348 	str	r3, [r2, #840]	; 0x348
  104678:	e51b3018 	ldr	r3, [fp, #-24]	; 0xffffffe8
  10467c:	e2833a05 	add	r3, r3, #20480	; 0x5000
  104680:	e3a02001 	mov	r2, #1
  104684:	e5c3234c 	strb	r2, [r3, #844]	; 0x34c
  104688:	e51b3018 	ldr	r3, [fp, #-24]	; 0xffffffe8
  10468c:	e2832010 	add	r2, r3, #16
  104690:	e51b3018 	ldr	r3, [fp, #-24]	; 0xffffffe8
  104694:	e5832008 	str	r2, [r3, #8]
  104698:	e51b3018 	ldr	r3, [fp, #-24]	; 0xffffffe8
  10469c:	e2833a05 	add	r3, r3, #20480	; 0x5000
  1046a0:	e593e348 	ldr	lr, [r3, #840]	; 0x348
  1046a4:	e51b3018 	ldr	r3, [fp, #-24]	; 0xffffffe8
  1046a8:	e2833fd2 	add	r3, r3, #840	; 0x348
  1046ac:	e1a06003 	mov	r6, r3
  1046b0:	e3043388 	movw	r3, #17288	; 0x4388
  1046b4:	e3403011 	movt	r3, #17
  1046b8:	e5934000 	ldr	r4, [r3]
  1046bc:	e51b3018 	ldr	r3, [fp, #-24]	; 0xffffffe8
  1046c0:	e2833a05 	add	r3, r3, #20480	; 0x5000
  1046c4:	e2833fd3 	add	r3, r3, #844	; 0x34c
  1046c8:	e1d330d0 	ldrsb	r3, [r3]
  1046cc:	e1a05003 	mov	r5, r3
  1046d0:	e51b2018 	ldr	r2, [fp, #-24]	; 0xffffffe8
  1046d4:	e51b3018 	ldr	r3, [fp, #-24]	; 0xffffffe8
  1046d8:	e5933008 	ldr	r3, [r3, #8]
  1046dc:	e58d3024 	str	r3, [sp, #36]	; 0x24
  1046e0:	e28dc01c 	add	ip, sp, #28
  1046e4:	e24b302c 	sub	r3, fp, #44	; 0x2c
  1046e8:	e8930003 	ldm	r3, {r0, r1}
  1046ec:	e88c0003 	stm	ip, {r0, r1}
  1046f0:	e51b3020 	ldr	r3, [fp, #-32]	; 0xffffffe0
  1046f4:	e58d3018 	str	r3, [sp, #24]
  1046f8:	e3043386 	movw	r3, #17286	; 0x4386
  1046fc:	e3403011 	movt	r3, #17
  104700:	e58d3014 	str	r3, [sp, #20]
  104704:	e58d2010 	str	r2, [sp, #16]
  104708:	e3043768 	movw	r3, #18280	; 0x4768
  10470c:	e3403010 	movt	r3, #16
  104710:	e58d300c 	str	r3, [sp, #12]
  104714:	e58d5008 	str	r5, [sp, #8]
  104718:	e3a03002 	mov	r3, #2
  10471c:	e58d3004 	str	r3, [sp, #4]
  104720:	e3a03102 	mov	r3, #-2147483648	; 0x80000000
  104724:	e58d3000 	str	r3, [sp]
  104728:	e3a03000 	mov	r3, #0
  10472c:	e1a02004 	mov	r2, r4
  104730:	e1a01006 	mov	r1, r6
  104734:	e1a0000e 	mov	r0, lr
  104738:	eb002135 	bl	10cc14 <system__tasking__restricted__stages__create_restricted_task>
  10473c:	e24bd010 	sub	sp, fp, #16
  104740:	e8bd4870 	pop	{r4, r5, r6, fp, lr}
  104744:	e28dd008 	add	sp, sp, #8
  104748:	e12fff1e 	bx	lr

0010474c <periodic_tasks__periodic_first_cpu___finalizer.5958>:
  10474c:	e92d4800 	push	{fp, lr}
  104750:	e28db004 	add	fp, sp, #4
  104754:	e24dd008 	sub	sp, sp, #8
  104758:	e50bc008 	str	ip, [fp, #-8]
  10475c:	eb002125 	bl	10cbf8 <system__tasking__restricted__stages__complete_restricted_task>
  104760:	e24bd004 	sub	sp, fp, #4
  104764:	e8bd8800 	pop	{fp, pc}

00104768 <periodic_tasks__periodic_first_cpuTB>:
  104768:	e92d4830 	push	{r4, r5, fp, lr}
  10476c:	e28db00c 	add	fp, sp, #12
  104770:	e24dd028 	sub	sp, sp, #40	; 0x28
  104774:	e50b0030 	str	r0, [fp, #-48]	; 0xffffffd0
  104778:	e28b3004 	add	r3, fp, #4
  10477c:	e50b3028 	str	r3, [fp, #-40]	; 0xffffffd8
  104780:	e51b3030 	ldr	r3, [fp, #-48]	; 0xffffffd0
  104784:	e3530000 	cmp	r3, #0
  104788:	1a000003 	bne	10479c <periodic_tasks__periodic_first_cpuTB+0x34>
  10478c:	e3a01006 	mov	r1, #6
  104790:	e302001c 	movw	r0, #8220	; 0x201c
  104794:	e3400011 	movt	r0, #17
  104798:	eb0007b5 	bl	106674 <__gnat_rcheck_CE_Access_Check>
  10479c:	e51b3030 	ldr	r3, [fp, #-48]	; 0xffffffd0
  1047a0:	e50b3018 	str	r3, [fp, #-24]	; 0xffffffe8
  1047a4:	e51b3030 	ldr	r3, [fp, #-48]	; 0xffffffd0
  1047a8:	e3530000 	cmp	r3, #0
  1047ac:	1a000003 	bne	1047c0 <periodic_tasks__periodic_first_cpuTB+0x58>
  1047b0:	e3a01006 	mov	r1, #6
  1047b4:	e302001c 	movw	r0, #8220	; 0x201c
  1047b8:	e3400011 	movt	r0, #17
  1047bc:	eb0007ac 	bl	106674 <__gnat_rcheck_CE_Access_Check>
  1047c0:	e51b3030 	ldr	r3, [fp, #-48]	; 0xffffffd0
  1047c4:	e2833004 	add	r3, r3, #4
  1047c8:	e50b301c 	str	r3, [fp, #-28]	; 0xffffffe4
  1047cc:	e51b3030 	ldr	r3, [fp, #-48]	; 0xffffffd0
  1047d0:	e5933004 	ldr	r3, [r3, #4]
  1047d4:	e1a00003 	mov	r0, r3
  1047d8:	eb000c92 	bl	107a28 <ada__real_time__microseconds>
  1047dc:	e1a02000 	mov	r2, r0
  1047e0:	e1a03001 	mov	r3, r1
  1047e4:	e14b22f4 	strd	r2, [fp, #-36]	; 0xffffffdc
  1047e8:	eb002101 	bl	10cbf4 <system__tasking__restricted__stages__complete_restricted_activation>
  1047ec:	eb000c8b 	bl	107a20 <ada__real_time__clock>
  1047f0:	e14b22d4 	ldrd	r2, [fp, #-36]	; 0xffffffdc
  1047f4:	eb000bbd 	bl	1076f0 <ada__real_time__Oadd>
  1047f8:	e1a02000 	mov	r2, r0
  1047fc:	e1a03001 	mov	r3, r1
  104800:	e14b21f4 	strd	r2, [fp, #-20]	; 0xffffffec
  104804:	e14b01d4 	ldrd	r0, [fp, #-20]	; 0xffffffec
  104808:	eb000d8d 	bl	107e44 <ada__real_time__delays__delay_until>
  10480c:	e3024030 	movw	r4, #8240	; 0x2030
  104810:	e3404011 	movt	r4, #17
  104814:	e3025044 	movw	r5, #8260	; 0x2044
  104818:	e3405011 	movt	r5, #17
  10481c:	e1a00004 	mov	r0, r4
  104820:	e1a01005 	mov	r1, r5
  104824:	eb001317 	bl	109488 <ada__text_io__put_line>
  104828:	e14b22d4 	ldrd	r2, [fp, #-36]	; 0xffffffdc
  10482c:	e14b01d4 	ldrd	r0, [fp, #-20]	; 0xffffffec
  104830:	eb000bae 	bl	1076f0 <ada__real_time__Oadd>
  104834:	e1a02000 	mov	r2, r0
  104838:	e1a03001 	mov	r3, r1
  10483c:	e14b21f4 	strd	r2, [fp, #-20]	; 0xffffffec
  104840:	eaffffef 	b	104804 <periodic_tasks__periodic_first_cpuTB+0x9c>
  104844:	e1a05000 	mov	r5, r0
  104848:	e3a04001 	mov	r4, #1
  10484c:	e320f000 	nop	{0}
  104850:	e24b3028 	sub	r3, fp, #40	; 0x28
  104854:	e1a0c003 	mov	ip, r3
  104858:	ebffffbb 	bl	10474c <periodic_tasks__periodic_first_cpu___finalizer.5958>
  10485c:	e3540001 	cmp	r4, #1
  104860:	1a000002 	bne	104870 <periodic_tasks__periodic_first_cpuTB+0x108>
  104864:	e1a03005 	mov	r3, r5
  104868:	e1a00003 	mov	r0, r3
  10486c:	fa003466 	blx	111a0c <_Unwind_Resume>
  104870:	e320f000 	nop	{0}
  104874:	e24bd00c 	sub	sp, fp, #12
  104878:	e8bd8830 	pop	{r4, r5, fp, pc}

0010487c <periodic_tasks__init>:
  10487c:	e92d4830 	push	{r4, r5, fp, lr}
  104880:	e28db00c 	add	fp, sp, #12
  104884:	e302404c 	movw	r4, #8268	; 0x204c
  104888:	e3404011 	movt	r4, #17
  10488c:	e3025054 	movw	r5, #8276	; 0x2054
  104890:	e3405011 	movt	r5, #17
  104894:	e1a00004 	mov	r0, r4
  104898:	e1a01005 	mov	r1, r5
  10489c:	eb0012f9 	bl	109488 <ada__text_io__put_line>
  1048a0:	eafffff7 	b	104884 <periodic_tasks__init+0x8>

001048a4 <periodic_tasks___elabb>:
  1048a4:	e92d4830 	push	{r4, r5, fp, lr}
  1048a8:	e28db00c 	add	fp, sp, #12
  1048ac:	e24dd018 	sub	sp, sp, #24
  1048b0:	e3060de0 	movw	r0, #28128	; 0x6de0
  1048b4:	e3400011 	movt	r0, #17
  1048b8:	eb002135 	bl	10cd94 <system__tasking__activation_chainIP>
  1048bc:	e3043386 	movw	r3, #17286	; 0x4386
  1048c0:	e3403011 	movt	r3, #17
  1048c4:	e3a02001 	mov	r2, #1
  1048c8:	e5c32000 	strb	r2, [r3]
  1048cc:	e302405c 	movw	r4, #8284	; 0x205c
  1048d0:	e3404011 	movt	r4, #17
  1048d4:	e3025060 	movw	r5, #8288	; 0x2060
  1048d8:	e3405011 	movt	r5, #17
  1048dc:	e3043240 	movw	r3, #16960	; 0x4240
  1048e0:	e340300f 	movt	r3, #15
  1048e4:	e58d3008 	str	r3, [sp, #8]
  1048e8:	e3a0300a 	mov	r3, #10
  1048ec:	e58d3004 	str	r3, [sp, #4]
  1048f0:	e14b41f4 	strd	r4, [fp, #-20]	; 0xffffffec
  1048f4:	e51b3010 	ldr	r3, [fp, #-16]
  1048f8:	e58d3000 	str	r3, [sp]
  1048fc:	e1a03004 	mov	r3, r4
  104900:	e3062de0 	movw	r2, #28128	; 0x6de0
  104904:	e3402011 	movt	r2, #17
  104908:	e3a01003 	mov	r1, #3
  10490c:	e3060de8 	movw	r0, #28136	; 0x6de8
  104910:	e3400011 	movt	r0, #17
  104914:	ebffff3d 	bl	104610 <periodic_tasks__periodic_first_cpuVIP>
  104918:	e3060de0 	movw	r0, #28128	; 0x6de0
  10491c:	e3400011 	movt	r0, #17
  104920:	eb0020a6 	bl	10cbc0 <system__tasking__restricted__stages__activate_restricted_tasks>
  104924:	e24bd00c 	sub	sp, fp, #12
  104928:	e8bd8830 	pop	{r4, r5, fp, pc}

0010492c <ada__exceptions__exception_occurrenceIP>:
  10492c:	e3a03000 	mov	r3, #0
  104930:	e5803000 	str	r3, [r0]
  104934:	e5803008 	str	r3, [r0, #8]
  104938:	e5c030d4 	strb	r3, [r0, #212]	; 0xd4
  10493c:	e58030d8 	str	r3, [r0, #216]	; 0xd8
  104940:	e58030dc 	str	r3, [r0, #220]	; 0xdc
  104944:	e12fff1e 	bx	lr

00104948 <ada__exceptions__exception_data__append_info_addressXn>:
  104948:	e92d4030 	push	{r4, r5, lr}
  10494c:	e24dd02c 	sub	sp, sp, #44	; 0x2c
  104950:	e1a05002 	mov	r5, r2
  104954:	e28de01e 	add	lr, sp, #30
  104958:	e3a02012 	mov	r2, #18
  10495c:	e3024988 	movw	r4, #10632	; 0x2988
  104960:	e3404011 	movt	r4, #17
  104964:	ea000000 	b	10496c <ada__exceptions__exception_data__append_info_addressXn+0x24>
  104968:	e1a0200c 	mov	r2, ip
  10496c:	e200c00f 	and	ip, r0, #15
  104970:	e7d4c00c 	ldrb	ip, [r4, ip]
  104974:	e56ec001 	strb	ip, [lr, #-1]!
  104978:	e242c001 	sub	ip, r2, #1
  10497c:	e1b00220 	lsrs	r0, r0, #4
  104980:	1afffff8 	bne	104968 <ada__exceptions__exception_data__append_info_addressXn+0x20>
  104984:	e28d0028 	add	r0, sp, #40	; 0x28
  104988:	e080c00c 	add	ip, r0, ip
  10498c:	e3a00030 	mov	r0, #48	; 0x30
  104990:	e54c001e 	strb	r0, [ip, #-30]	; 0xffffffe2
  104994:	e3a00078 	mov	r0, #120	; 0x78
  104998:	e54c001d 	strb	r0, [ip, #-29]	; 0xffffffe3
  10499c:	e2422002 	sub	r2, r2, #2
  1049a0:	e3520012 	cmp	r2, #18
  1049a4:	d1a00002 	movle	r0, r2
  1049a8:	c3a00013 	movgt	r0, #19
  1049ac:	e28dc028 	add	ip, sp, #40	; 0x28
  1049b0:	e08c0000 	add	r0, ip, r0
  1049b4:	e58d2020 	str	r2, [sp, #32]
  1049b8:	e3a02012 	mov	r2, #18
  1049bc:	e58d2024 	str	r2, [sp, #36]	; 0x24
  1049c0:	e58d3000 	str	r3, [sp]
  1049c4:	e1a02001 	mov	r2, r1
  1049c8:	e1a03005 	mov	r3, r5
  1049cc:	e240001d 	sub	r0, r0, #29
  1049d0:	e28d1020 	add	r1, sp, #32
  1049d4:	eb0000e1 	bl	104d60 <ada__exceptions__exception_data__append_info_stringXn>
  1049d8:	e28dd02c 	add	sp, sp, #44	; 0x2c
  1049dc:	e8bd8030 	pop	{r4, r5, pc}

001049e0 <ada__exceptions__exception_data__append_info_basic_exception_informationXn>:
  1049e0:	e92d4bf0 	push	{r4, r5, r6, r7, r8, r9, fp, lr}
  1049e4:	e28db01c 	add	fp, sp, #28
  1049e8:	e24dd018 	sub	sp, sp, #24
  1049ec:	e1a04000 	mov	r4, r0
  1049f0:	e1a06001 	mov	r6, r1
  1049f4:	e1a05002 	mov	r5, r2
  1049f8:	e1a07003 	mov	r7, r3
  1049fc:	eb000197 	bl	105060 <ada__exceptions__exception_data__exception_name_length__2Xn>
  104a00:	e1a08000 	mov	r8, r0
  104a04:	e2803007 	add	r3, r0, #7
  104a08:	e3c33007 	bic	r3, r3, #7
  104a0c:	e04dd003 	sub	sp, sp, r3
  104a10:	e28d9008 	add	r9, sp, #8
  104a14:	e3a03001 	mov	r3, #1
  104a18:	e50b302c 	str	r3, [fp, #-44]	; 0xffffffd4
  104a1c:	e50b0028 	str	r0, [fp, #-40]	; 0xffffffd8
  104a20:	e3a03000 	mov	r3, #0
  104a24:	e1a01009 	mov	r1, r9
  104a28:	e24b202c 	sub	r2, fp, #44	; 0x2c
  104a2c:	e1a00004 	mov	r0, r4
  104a30:	eb00009a 	bl	104ca0 <ada__exceptions__exception_data__append_info_exception_name__2Xn>
  104a34:	e5dd3008 	ldrb	r3, [sp, #8]
  104a38:	e353005f 	cmp	r3, #95	; 0x5f
  104a3c:	1a000005 	bne	104a58 <ada__exceptions__exception_data__append_info_basic_exception_informationXn+0x78>
  104a40:	e59430d8 	ldr	r3, [r4, #216]	; 0xd8
  104a44:	e3530000 	cmp	r3, #0
  104a48:	1a00002d 	bne	104b04 <ada__exceptions__exception_data__append_info_basic_exception_informationXn+0x124>
  104a4c:	e1a00007 	mov	r0, r7
  104a50:	e24bd01c 	sub	sp, fp, #28
  104a54:	e8bd8bf0 	pop	{r4, r5, r6, r7, r8, r9, fp, pc}
  104a58:	e58d7000 	str	r7, [sp]
  104a5c:	e1a02006 	mov	r2, r6
  104a60:	e1a03005 	mov	r3, r5
  104a64:	e302093c 	movw	r0, #10556	; 0x293c
  104a68:	e3400011 	movt	r0, #17
  104a6c:	e302106c 	movw	r1, #8300	; 0x206c
  104a70:	e3401011 	movt	r1, #17
  104a74:	eb0000b9 	bl	104d60 <ada__exceptions__exception_data__append_info_stringXn>
  104a78:	e3a03001 	mov	r3, #1
  104a7c:	e50b3024 	str	r3, [fp, #-36]	; 0xffffffdc
  104a80:	e50b8020 	str	r8, [fp, #-32]	; 0xffffffe0
  104a84:	e58d0000 	str	r0, [sp]
  104a88:	e1a02006 	mov	r2, r6
  104a8c:	e1a03005 	mov	r3, r5
  104a90:	e1a00009 	mov	r0, r9
  104a94:	e24b1024 	sub	r1, fp, #36	; 0x24
  104a98:	eb0000b0 	bl	104d60 <ada__exceptions__exception_data__append_info_stringXn>
  104a9c:	e1a07000 	mov	r7, r0
  104aa0:	e1a00004 	mov	r0, r4
  104aa4:	eb000168 	bl	10504c <__gnat_exception_msg_len>
  104aa8:	e3500000 	cmp	r0, #0
  104aac:	1a000005 	bne	104ac8 <ada__exceptions__exception_data__append_info_basic_exception_informationXn+0xe8>
  104ab0:	e1a02007 	mov	r2, r7
  104ab4:	e1a00006 	mov	r0, r6
  104ab8:	e1a01005 	mov	r1, r5
  104abc:	eb00009f 	bl	104d40 <ada__exceptions__exception_data__append_info_nlXn>
  104ac0:	e1a07000 	mov	r7, r0
  104ac4:	eaffffdd 	b	104a40 <ada__exceptions__exception_data__append_info_basic_exception_informationXn+0x60>
  104ac8:	e58d7000 	str	r7, [sp]
  104acc:	e1a02006 	mov	r2, r6
  104ad0:	e1a03005 	mov	r3, r5
  104ad4:	e3020068 	movw	r0, #8296	; 0x2068
  104ad8:	e3400011 	movt	r0, #17
  104adc:	e3021074 	movw	r1, #8308	; 0x2074
  104ae0:	e3401011 	movt	r1, #17
  104ae4:	eb00009d 	bl	104d60 <ada__exceptions__exception_data__append_info_stringXn>
  104ae8:	e1a03000 	mov	r3, r0
  104aec:	e1a01006 	mov	r1, r6
  104af0:	e1a02005 	mov	r2, r5
  104af4:	e1a00004 	mov	r0, r4
  104af8:	eb000023 	bl	104b8c <__gnat_append_info_e_msg>
  104afc:	e1a07000 	mov	r7, r0
  104b00:	eaffffea 	b	104ab0 <ada__exceptions__exception_data__append_info_basic_exception_informationXn+0xd0>
  104b04:	e58d7000 	str	r7, [sp]
  104b08:	e1a02006 	mov	r2, r6
  104b0c:	e1a03005 	mov	r3, r5
  104b10:	e3020948 	movw	r0, #10568	; 0x2948
  104b14:	e3400011 	movt	r0, #17
  104b18:	e302107c 	movw	r1, #8316	; 0x207c
  104b1c:	e3401011 	movt	r1, #17
  104b20:	eb00008e 	bl	104d60 <ada__exceptions__exception_data__append_info_stringXn>
  104b24:	e1a03000 	mov	r3, r0
  104b28:	e1a01006 	mov	r1, r6
  104b2c:	e1a02005 	mov	r2, r5
  104b30:	e59400d8 	ldr	r0, [r4, #216]	; 0xd8
  104b34:	eb000065 	bl	104cd0 <ada__exceptions__exception_data__append_info_natXn>
  104b38:	e1a02000 	mov	r2, r0
  104b3c:	e1a00006 	mov	r0, r6
  104b40:	e1a01005 	mov	r1, r5
  104b44:	eb00007d 	bl	104d40 <ada__exceptions__exception_data__append_info_nlXn>
  104b48:	e1a07000 	mov	r7, r0
  104b4c:	eaffffbe 	b	104a4c <ada__exceptions__exception_data__append_info_basic_exception_informationXn+0x6c>

00104b50 <ada__exceptions__exception_data__append_info_characterXn>:
  104b50:	e592c000 	ldr	ip, [r2]
  104b54:	e5922004 	ldr	r2, [r2, #4]
  104b58:	e15c0002 	cmp	ip, r2
  104b5c:	ca000005 	bgt	104b78 <ada__exceptions__exception_data__append_info_characterXn+0x28>
  104b60:	e1520003 	cmp	r2, r3
  104b64:	c2833001 	addgt	r3, r3, #1
  104b68:	c043c00c 	subgt	ip, r3, ip
  104b6c:	c7c1000c 	strbgt	r0, [r1, ip]
  104b70:	e1a00003 	mov	r0, r3
  104b74:	e12fff1e 	bx	lr
  104b78:	e92d4010 	push	{r4, lr}
  104b7c:	e1a04003 	mov	r4, r3
  104b80:	eb000937 	bl	107064 <__gnat_to_stderr_char>
  104b84:	e1a00004 	mov	r0, r4
  104b88:	e8bd8010 	pop	{r4, pc}

00104b8c <__gnat_append_info_e_msg>:
  104b8c:	e92d4bf0 	push	{r4, r5, r6, r7, r8, r9, fp, lr}
  104b90:	e28db01c 	add	fp, sp, #28
  104b94:	e24dd010 	sub	sp, sp, #16
  104b98:	e1a08003 	mov	r8, r3
  104b9c:	e5903000 	ldr	r3, [r0]
  104ba0:	e3530000 	cmp	r3, #0
  104ba4:	0a000017 	beq	104c08 <__gnat_append_info_e_msg+0x7c>
  104ba8:	e1a04000 	mov	r4, r0
  104bac:	e1a07001 	mov	r7, r1
  104bb0:	e1a06002 	mov	r6, r2
  104bb4:	eb000124 	bl	10504c <__gnat_exception_msg_len>
  104bb8:	e1a05000 	mov	r5, r0
  104bbc:	e2803007 	add	r3, r0, #7
  104bc0:	e3c33007 	bic	r3, r3, #7
  104bc4:	e04dd003 	sub	sp, sp, r3
  104bc8:	e28d9008 	add	r9, sp, #8
  104bcc:	e1a02000 	mov	r2, r0
  104bd0:	e284100c 	add	r1, r4, #12
  104bd4:	e1a00009 	mov	r0, r9
  104bd8:	fa002d3c 	blx	1100d0 <memcpy>
  104bdc:	e3a03001 	mov	r3, #1
  104be0:	e50b3024 	str	r3, [fp, #-36]	; 0xffffffdc
  104be4:	e50b5020 	str	r5, [fp, #-32]	; 0xffffffe0
  104be8:	e58d8000 	str	r8, [sp]
  104bec:	e1a02007 	mov	r2, r7
  104bf0:	e1a03006 	mov	r3, r6
  104bf4:	e1a00009 	mov	r0, r9
  104bf8:	e24b1024 	sub	r1, fp, #36	; 0x24
  104bfc:	eb000057 	bl	104d60 <ada__exceptions__exception_data__append_info_stringXn>
  104c00:	e24bd01c 	sub	sp, fp, #28
  104c04:	e8bd8bf0 	pop	{r4, r5, r6, r7, r8, r9, fp, pc}
  104c08:	e3001145 	movw	r1, #325	; 0x145
  104c0c:	e3020084 	movw	r0, #8324	; 0x2084
  104c10:	e3400011 	movt	r0, #17
  104c14:	eb0006aa 	bl	1066c4 <__gnat_rcheck_CE_Explicit_Raise>

00104c18 <ada__exceptions__exception_data__append_info_exception_nameXn>:
  104c18:	e92d4bf0 	push	{r4, r5, r6, r7, r8, r9, fp, lr}
  104c1c:	e28db01c 	add	fp, sp, #28
  104c20:	e24dd010 	sub	sp, sp, #16
  104c24:	e2505000 	subs	r5, r0, #0
  104c28:	0a000018 	beq	104c90 <ada__exceptions__exception_data__append_info_exception_nameXn+0x78>
  104c2c:	e1a07001 	mov	r7, r1
  104c30:	e1a06002 	mov	r6, r2
  104c34:	e1a08003 	mov	r8, r3
  104c38:	e1a00005 	mov	r0, r5
  104c3c:	eb000104 	bl	105054 <ada__exceptions__exception_data__exception_name_lengthXn>
  104c40:	e1a04000 	mov	r4, r0
  104c44:	e2803007 	add	r3, r0, #7
  104c48:	e3c33007 	bic	r3, r3, #7
  104c4c:	e04dd003 	sub	sp, sp, r3
  104c50:	e28d9008 	add	r9, sp, #8
  104c54:	e1a02000 	mov	r2, r0
  104c58:	e5951008 	ldr	r1, [r5, #8]
  104c5c:	e1a00009 	mov	r0, r9
  104c60:	fa002d1a 	blx	1100d0 <memcpy>
  104c64:	e3a03001 	mov	r3, #1
  104c68:	e50b3024 	str	r3, [fp, #-36]	; 0xffffffdc
  104c6c:	e50b4020 	str	r4, [fp, #-32]	; 0xffffffe0
  104c70:	e58d8000 	str	r8, [sp]
  104c74:	e1a02007 	mov	r2, r7
  104c78:	e1a03006 	mov	r3, r6
  104c7c:	e1a00009 	mov	r0, r9
  104c80:	e24b1024 	sub	r1, fp, #36	; 0x24
  104c84:	eb000035 	bl	104d60 <ada__exceptions__exception_data__append_info_stringXn>
  104c88:	e24bd01c 	sub	sp, fp, #28
  104c8c:	e8bd8bf0 	pop	{r4, r5, r6, r7, r8, r9, fp, pc}
  104c90:	e300115b 	movw	r1, #347	; 0x15b
  104c94:	e3020084 	movw	r0, #8324	; 0x2084
  104c98:	e3400011 	movt	r0, #17
  104c9c:	eb000688 	bl	1066c4 <__gnat_rcheck_CE_Explicit_Raise>

00104ca0 <ada__exceptions__exception_data__append_info_exception_name__2Xn>:
  104ca0:	e92d4010 	push	{r4, lr}
  104ca4:	e5900000 	ldr	r0, [r0]
  104ca8:	ebffffda 	bl	104c18 <ada__exceptions__exception_data__append_info_exception_nameXn>
  104cac:	e8bd8010 	pop	{r4, pc}

00104cb0 <ada__exceptions__exception_data__exception_info_maxlengthXn>:
  104cb0:	e92d4070 	push	{r4, r5, r6, lr}
  104cb4:	e1a05000 	mov	r5, r0
  104cb8:	eb00009f 	bl	104f3c <ada__exceptions__exception_data__basic_exception_info_maxlengthXn>
  104cbc:	e1a04000 	mov	r4, r0
  104cc0:	e1a00005 	mov	r0, r5
  104cc4:	eb0001d8 	bl	10542c <ada__exceptions__exception_data__untailored_exception_traceback_maxlengthXn>
  104cc8:	e0840000 	add	r0, r4, r0
  104ccc:	e8bd8070 	pop	{r4, r5, r6, pc}

00104cd0 <ada__exceptions__exception_data__append_info_natXn>:
  104cd0:	e92d4370 	push	{r4, r5, r6, r8, r9, lr}
  104cd4:	e1a04000 	mov	r4, r0
  104cd8:	e1a06001 	mov	r6, r1
  104cdc:	e1a05002 	mov	r5, r2
  104ce0:	e1a00003 	mov	r0, r3
  104ce4:	e3540009 	cmp	r4, #9
  104ce8:	ca00000d 	bgt	104d24 <ada__exceptions__exception_data__append_info_natXn+0x54>
  104cec:	e3062667 	movw	r2, #26215	; 0x6667
  104cf0:	e3462666 	movt	r2, #26214	; 0x6666
  104cf4:	e0c98294 	smull	r8, r9, r4, r2
  104cf8:	e1a02fc4 	asr	r2, r4, #31
  104cfc:	e0622149 	rsb	r2, r2, r9, asr #2
  104d00:	e0822102 	add	r2, r2, r2, lsl #2
  104d04:	e0444082 	sub	r4, r4, r2, lsl #1
  104d08:	e2844030 	add	r4, r4, #48	; 0x30
  104d0c:	e1a03000 	mov	r3, r0
  104d10:	e1a01006 	mov	r1, r6
  104d14:	e1a02005 	mov	r2, r5
  104d18:	e6ef0074 	uxtb	r0, r4
  104d1c:	ebffff8b 	bl	104b50 <ada__exceptions__exception_data__append_info_characterXn>
  104d20:	e8bd8370 	pop	{r4, r5, r6, r8, r9, pc}
  104d24:	e3068667 	movw	r8, #26215	; 0x6667
  104d28:	e3468666 	movt	r8, #26214	; 0x6666
  104d2c:	e0c98894 	smull	r8, r9, r4, r8
  104d30:	e1a0cfc4 	asr	ip, r4, #31
  104d34:	e06c0149 	rsb	r0, ip, r9, asr #2
  104d38:	ebffffe4 	bl	104cd0 <ada__exceptions__exception_data__append_info_natXn>
  104d3c:	eaffffea 	b	104cec <ada__exceptions__exception_data__append_info_natXn+0x1c>

00104d40 <ada__exceptions__exception_data__append_info_nlXn>:
  104d40:	e92d4010 	push	{r4, lr}
  104d44:	e1a0c001 	mov	ip, r1
  104d48:	e1a03002 	mov	r3, r2
  104d4c:	e1a01000 	mov	r1, r0
  104d50:	e1a0200c 	mov	r2, ip
  104d54:	e3a0000a 	mov	r0, #10
  104d58:	ebffff7c 	bl	104b50 <ada__exceptions__exception_data__append_info_characterXn>
  104d5c:	e8bd8010 	pop	{r4, pc}

00104d60 <ada__exceptions__exception_data__append_info_stringXn>:
  104d60:	e92d4070 	push	{r4, r5, r6, lr}
  104d64:	e59d5010 	ldr	r5, [sp, #16]
  104d68:	e593c000 	ldr	ip, [r3]
  104d6c:	e593e004 	ldr	lr, [r3, #4]
  104d70:	e15e000c 	cmp	lr, ip
  104d74:	ba000014 	blt	104dcc <ada__exceptions__exception_data__append_info_stringXn+0x6c>
  104d78:	e5914000 	ldr	r4, [r1]
  104d7c:	e5913004 	ldr	r3, [r1, #4]
  104d80:	e1540003 	cmp	r4, r3
  104d84:	d0434004 	suble	r4, r3, r4
  104d88:	d2844001 	addle	r4, r4, #1
  104d8c:	c3a04000 	movgt	r4, #0
  104d90:	e0844005 	add	r4, r4, r5
  104d94:	e154000e 	cmp	r4, lr
  104d98:	a1a0400e 	movge	r4, lr
  104d9c:	e2855001 	add	r5, r5, #1
  104da0:	e045c00c 	sub	ip, r5, ip
  104da4:	e08cc002 	add	ip, ip, r2
  104da8:	e1540005 	cmp	r4, r5
  104dac:	a2655001 	rsbge	r5, r5, #1
  104db0:	a0852004 	addge	r2, r5, r4
  104db4:	b3a02000 	movlt	r2, #0
  104db8:	e1a01000 	mov	r1, r0
  104dbc:	e1a0000c 	mov	r0, ip
  104dc0:	fa002cfd 	blx	1101bc <memmove>
  104dc4:	e1a00004 	mov	r0, r4
  104dc8:	e8bd8070 	pop	{r4, r5, r6, pc}
  104dcc:	eb0008a7 	bl	107070 <__gnat_to_stderr>
  104dd0:	e1a04005 	mov	r4, r5
  104dd4:	eafffffa 	b	104dc4 <ada__exceptions__exception_data__append_info_stringXn+0x64>

00104dd8 <__gnat_append_info_u_e_info>:
  104dd8:	e92d4070 	push	{r4, r5, r6, lr}
  104ddc:	e1a04000 	mov	r4, r0
  104de0:	e1a06001 	mov	r6, r1
  104de4:	e1a05002 	mov	r5, r2
  104de8:	ebfffefc 	bl	1049e0 <ada__exceptions__exception_data__append_info_basic_exception_informationXn>
  104dec:	e1a03000 	mov	r3, r0
  104df0:	e1a01006 	mov	r1, r6
  104df4:	e1a02005 	mov	r2, r5
  104df8:	e1a00004 	mov	r0, r4
  104dfc:	eb000000 	bl	104e04 <ada__exceptions__exception_data__append_info_untailored_exception_tracebackXn>
  104e00:	e8bd8070 	pop	{r4, r5, r6, pc}

00104e04 <ada__exceptions__exception_data__append_info_untailored_exception_tracebackXn>:
  104e04:	e92d4ff0 	push	{r4, r5, r6, r7, r8, r9, sl, fp, lr}
  104e08:	e24dd00c 	sub	sp, sp, #12
  104e0c:	e1a04003 	mov	r4, r3
  104e10:	e59030dc 	ldr	r3, [r0, #220]	; 0xdc
  104e14:	e3530000 	cmp	r3, #0
  104e18:	1a000002 	bne	104e28 <ada__exceptions__exception_data__append_info_untailored_exception_tracebackXn+0x24>
  104e1c:	e1a00004 	mov	r0, r4
  104e20:	e28dd00c 	add	sp, sp, #12
  104e24:	e8bd8ff0 	pop	{r4, r5, r6, r7, r8, r9, sl, fp, pc}
  104e28:	e1a07000 	mov	r7, r0
  104e2c:	e1a06001 	mov	r6, r1
  104e30:	e1a05002 	mov	r5, r2
  104e34:	e1a08002 	mov	r8, r2
  104e38:	eb00119d 	bl	1094b4 <__gnat_get_executable_load_address>
  104e3c:	e2509000 	subs	r9, r0, #0
  104e40:	0a000011 	beq	104e8c <ada__exceptions__exception_data__append_info_untailored_exception_tracebackXn+0x88>
  104e44:	e58d4000 	str	r4, [sp]
  104e48:	e1a02006 	mov	r2, r6
  104e4c:	e1a03005 	mov	r3, r5
  104e50:	e3020970 	movw	r0, #10608	; 0x2970
  104e54:	e3400011 	movt	r0, #17
  104e58:	e3021094 	movw	r1, #8340	; 0x2094
  104e5c:	e3401011 	movt	r1, #17
  104e60:	ebffffbe 	bl	104d60 <ada__exceptions__exception_data__append_info_stringXn>
  104e64:	e1a03000 	mov	r3, r0
  104e68:	e1a01006 	mov	r1, r6
  104e6c:	e1a02005 	mov	r2, r5
  104e70:	e1a00009 	mov	r0, r9
  104e74:	ebfffeb3 	bl	104948 <ada__exceptions__exception_data__append_info_addressXn>
  104e78:	e1a02000 	mov	r2, r0
  104e7c:	e1a00006 	mov	r0, r6
  104e80:	e1a01005 	mov	r1, r5
  104e84:	ebffffad 	bl	104d40 <ada__exceptions__exception_data__append_info_nlXn>
  104e88:	e1a04000 	mov	r4, r0
  104e8c:	e58d4000 	str	r4, [sp]
  104e90:	e1a02006 	mov	r2, r6
  104e94:	e1a03005 	mov	r3, r5
  104e98:	e3020950 	movw	r0, #10576	; 0x2950
  104e9c:	e3400011 	movt	r0, #17
  104ea0:	e302109c 	movw	r1, #8348	; 0x209c
  104ea4:	e3401011 	movt	r1, #17
  104ea8:	ebffffac 	bl	104d60 <ada__exceptions__exception_data__append_info_stringXn>
  104eac:	e1a02000 	mov	r2, r0
  104eb0:	e1a00006 	mov	r0, r6
  104eb4:	e1a01005 	mov	r1, r5
  104eb8:	ebffffa0 	bl	104d40 <ada__exceptions__exception_data__append_info_nlXn>
  104ebc:	e1a04000 	mov	r4, r0
  104ec0:	e597a0dc 	ldr	sl, [r7, #220]	; 0xdc
  104ec4:	e35a0000 	cmp	sl, #0
  104ec8:	da000015 	ble	104f24 <ada__exceptions__exception_data__append_info_untailored_exception_tracebackXn+0x120>
  104ecc:	e28790dc 	add	r9, r7, #220	; 0xdc
  104ed0:	e3a05000 	mov	r5, #0
  104ed4:	e3a0b020 	mov	fp, #32
  104ed8:	e2855001 	add	r5, r5, #1
  104edc:	e5b90004 	ldr	r0, [r9, #4]!
  104ee0:	eb0020a1 	bl	10d16c <system__traceback_entries__pc_for>
  104ee4:	e1a03004 	mov	r3, r4
  104ee8:	e1a01006 	mov	r1, r6
  104eec:	e1a02008 	mov	r2, r8
  104ef0:	ebfffe94 	bl	104948 <ada__exceptions__exception_data__append_info_addressXn>
  104ef4:	e1a04000 	mov	r4, r0
  104ef8:	e59730dc 	ldr	r3, [r7, #220]	; 0xdc
  104efc:	e1530005 	cmp	r3, r5
  104f00:	0a000007 	beq	104f24 <ada__exceptions__exception_data__append_info_untailored_exception_tracebackXn+0x120>
  104f04:	e1a03000 	mov	r3, r0
  104f08:	e1a01006 	mov	r1, r6
  104f0c:	e1a02008 	mov	r2, r8
  104f10:	e1a0000b 	mov	r0, fp
  104f14:	ebffff0d 	bl	104b50 <ada__exceptions__exception_data__append_info_characterXn>
  104f18:	e1a04000 	mov	r4, r0
  104f1c:	e15a0005 	cmp	sl, r5
  104f20:	1affffec 	bne	104ed8 <ada__exceptions__exception_data__append_info_untailored_exception_tracebackXn+0xd4>
  104f24:	e1a02004 	mov	r2, r4
  104f28:	e1a00006 	mov	r0, r6
  104f2c:	e1a01008 	mov	r1, r8
  104f30:	ebffff82 	bl	104d40 <ada__exceptions__exception_data__append_info_nlXn>
  104f34:	e1a04000 	mov	r4, r0
  104f38:	eaffffb7 	b	104e1c <ada__exceptions__exception_data__append_info_untailored_exception_tracebackXn+0x18>

00104f3c <ada__exceptions__exception_data__basic_exception_info_maxlengthXn>:
  104f3c:	e92d4070 	push	{r4, r5, r6, lr}
  104f40:	e1a05000 	mov	r5, r0
  104f44:	eb000045 	bl	105060 <ada__exceptions__exception_data__exception_name_length__2Xn>
  104f48:	e1a04000 	mov	r4, r0
  104f4c:	e1a00005 	mov	r0, r5
  104f50:	eb00003d 	bl	10504c <__gnat_exception_msg_len>
  104f54:	e0800004 	add	r0, r0, r4
  104f58:	e280001f 	add	r0, r0, #31
  104f5c:	e8bd8070 	pop	{r4, r5, r6, pc}

00104f60 <ada__exceptions__exception_data__exception_informationXn>:
  104f60:	e92d4ff0 	push	{r4, r5, r6, r7, r8, r9, sl, fp, lr}
  104f64:	e28db020 	add	fp, sp, #32
  104f68:	e24dd034 	sub	sp, sp, #52	; 0x34
  104f6c:	e1a05000 	mov	r5, r0
  104f70:	e50b1048 	str	r1, [fp, #-72]	; 0xffffffb8
  104f74:	e24b0044 	sub	r0, fp, #68	; 0x44
  104f78:	eb000115 	bl	1053d4 <ada__exceptions__exception_data__tailored_exception_tracebackXn>
  104f7c:	e51ba044 	ldr	sl, [fp, #-68]	; 0xffffffbc
  104f80:	e51b3040 	ldr	r3, [fp, #-64]	; 0xffffffc0
  104f84:	e5939000 	ldr	r9, [r3]
  104f88:	e5938004 	ldr	r8, [r3, #4]
  104f8c:	e1580009 	cmp	r8, r9
  104f90:	a0484009 	subge	r4, r8, r9
  104f94:	a2844001 	addge	r4, r4, #1
  104f98:	b3a04000 	movlt	r4, #0
  104f9c:	e51b0048 	ldr	r0, [fp, #-72]	; 0xffffffb8
  104fa0:	ebffffe5 	bl	104f3c <ada__exceptions__exception_data__basic_exception_info_maxlengthXn>
  104fa4:	e0844000 	add	r4, r4, r0
  104fa8:	e1c43fc4 	bic	r3, r4, r4, asr #31
  104fac:	e2833007 	add	r3, r3, #7
  104fb0:	e3c33007 	bic	r3, r3, #7
  104fb4:	e04dd003 	sub	sp, sp, r3
  104fb8:	e28d6008 	add	r6, sp, #8
  104fbc:	e3a07001 	mov	r7, #1
  104fc0:	e50b703c 	str	r7, [fp, #-60]	; 0xffffffc4
  104fc4:	e50b4038 	str	r4, [fp, #-56]	; 0xffffffc8
  104fc8:	e3a03000 	mov	r3, #0
  104fcc:	e1a01006 	mov	r1, r6
  104fd0:	e24b203c 	sub	r2, fp, #60	; 0x3c
  104fd4:	e51b0048 	ldr	r0, [fp, #-72]	; 0xffffffb8
  104fd8:	ebfffe80 	bl	1049e0 <ada__exceptions__exception_data__append_info_basic_exception_informationXn>
  104fdc:	e50b9034 	str	r9, [fp, #-52]	; 0xffffffcc
  104fe0:	e50b8030 	str	r8, [fp, #-48]	; 0xffffffd0
  104fe4:	e50b702c 	str	r7, [fp, #-44]	; 0xffffffd4
  104fe8:	e50b4028 	str	r4, [fp, #-40]	; 0xffffffd8
  104fec:	e58d0000 	str	r0, [sp]
  104ff0:	e1a02006 	mov	r2, r6
  104ff4:	e24b302c 	sub	r3, fp, #44	; 0x2c
  104ff8:	e1a0000a 	mov	r0, sl
  104ffc:	e24b1034 	sub	r1, fp, #52	; 0x34
  105000:	ebffff56 	bl	104d60 <ada__exceptions__exception_data__append_info_stringXn>
  105004:	e1a09000 	mov	r9, r0
  105008:	e1c08fc0 	bic	r8, r0, r0, asr #31
  10500c:	e288000b 	add	r0, r8, #11
  105010:	e3c00003 	bic	r0, r0, #3
  105014:	eb001d65 	bl	10c5b0 <system__secondary_stack__ss_allocate>
  105018:	e1a04000 	mov	r4, r0
  10501c:	e5807000 	str	r7, [r0]
  105020:	e5809004 	str	r9, [r0, #4]
  105024:	e2807008 	add	r7, r0, #8
  105028:	e1a02008 	mov	r2, r8
  10502c:	e1a01006 	mov	r1, r6
  105030:	e1a00007 	mov	r0, r7
  105034:	fa002c25 	blx	1100d0 <memcpy>
  105038:	e5857000 	str	r7, [r5]
  10503c:	e5854004 	str	r4, [r5, #4]
  105040:	e1a00005 	mov	r0, r5
  105044:	e24bd020 	sub	sp, fp, #32
  105048:	e8bd8ff0 	pop	{r4, r5, r6, r7, r8, r9, sl, fp, pc}

0010504c <__gnat_exception_msg_len>:
  10504c:	e5900008 	ldr	r0, [r0, #8]
  105050:	e12fff1e 	bx	lr

00105054 <ada__exceptions__exception_data__exception_name_lengthXn>:
  105054:	e5900004 	ldr	r0, [r0, #4]
  105058:	e2400001 	sub	r0, r0, #1
  10505c:	e12fff1e 	bx	lr

00105060 <ada__exceptions__exception_data__exception_name_length__2Xn>:
  105060:	e92d4010 	push	{r4, lr}
  105064:	e5900000 	ldr	r0, [r0]
  105068:	ebfffff9 	bl	105054 <ada__exceptions__exception_data__exception_name_lengthXn>
  10506c:	e8bd8010 	pop	{r4, pc}

00105070 <ada__exceptions__exception_data__untailored_exception_tracebackXn>:
  105070:	e92d49f0 	push	{r4, r5, r6, r7, r8, fp, lr}
  105074:	e28db018 	add	fp, sp, #24
  105078:	e24dd00c 	sub	sp, sp, #12
  10507c:	e1a05000 	mov	r5, r0
  105080:	e1a04001 	mov	r4, r1
  105084:	e1a00001 	mov	r0, r1
  105088:	eb0000e7 	bl	10542c <ada__exceptions__exception_data__untailored_exception_traceback_maxlengthXn>
  10508c:	e2803007 	add	r3, r0, #7
  105090:	e3c33007 	bic	r3, r3, #7
  105094:	e04dd003 	sub	sp, sp, r3
  105098:	e3a08001 	mov	r8, #1
  10509c:	e50b8024 	str	r8, [fp, #-36]	; 0xffffffdc
  1050a0:	e50b0020 	str	r0, [fp, #-32]	; 0xffffffe0
  1050a4:	e3a03000 	mov	r3, #0
  1050a8:	e1a0100d 	mov	r1, sp
  1050ac:	e24b2024 	sub	r2, fp, #36	; 0x24
  1050b0:	e1a00004 	mov	r0, r4
  1050b4:	ebffff52 	bl	104e04 <ada__exceptions__exception_data__append_info_untailored_exception_tracebackXn>
  1050b8:	e1a06000 	mov	r6, r0
  1050bc:	e1c07fc0 	bic	r7, r0, r0, asr #31
  1050c0:	e287000b 	add	r0, r7, #11
  1050c4:	e3c00003 	bic	r0, r0, #3
  1050c8:	eb001d38 	bl	10c5b0 <system__secondary_stack__ss_allocate>
  1050cc:	e1a04000 	mov	r4, r0
  1050d0:	e5808000 	str	r8, [r0]
  1050d4:	e5806004 	str	r6, [r0, #4]
  1050d8:	e2806008 	add	r6, r0, #8
  1050dc:	e1a02007 	mov	r2, r7
  1050e0:	e1a0100d 	mov	r1, sp
  1050e4:	e1a00006 	mov	r0, r6
  1050e8:	fa002bf8 	blx	1100d0 <memcpy>
  1050ec:	e5856000 	str	r6, [r5]
  1050f0:	e5854004 	str	r4, [r5, #4]
  1050f4:	e1a00005 	mov	r0, r5
  1050f8:	e24bd018 	sub	sp, fp, #24
  1050fc:	e8bd89f0 	pop	{r4, r5, r6, r7, r8, fp, pc}

00105100 <ada__exceptions__exception_data__untailored_exception_informationXn>:
  105100:	e92d49f0 	push	{r4, r5, r6, r7, r8, fp, lr}
  105104:	e28db018 	add	fp, sp, #24
  105108:	e24dd00c 	sub	sp, sp, #12
  10510c:	e1a05000 	mov	r5, r0
  105110:	e1a04001 	mov	r4, r1
  105114:	e1a00001 	mov	r0, r1
  105118:	ebfffee4 	bl	104cb0 <ada__exceptions__exception_data__exception_info_maxlengthXn>
  10511c:	e2803007 	add	r3, r0, #7
  105120:	e3c33007 	bic	r3, r3, #7
  105124:	e04dd003 	sub	sp, sp, r3
  105128:	e3a08001 	mov	r8, #1
  10512c:	e50b8024 	str	r8, [fp, #-36]	; 0xffffffdc
  105130:	e50b0020 	str	r0, [fp, #-32]	; 0xffffffe0
  105134:	e3a03000 	mov	r3, #0
  105138:	e1a0100d 	mov	r1, sp
  10513c:	e24b2024 	sub	r2, fp, #36	; 0x24
  105140:	e1a00004 	mov	r0, r4
  105144:	ebffff23 	bl	104dd8 <__gnat_append_info_u_e_info>
  105148:	e1a06000 	mov	r6, r0
  10514c:	e1c07fc0 	bic	r7, r0, r0, asr #31
  105150:	e287000b 	add	r0, r7, #11
  105154:	e3c00003 	bic	r0, r0, #3
  105158:	eb001d14 	bl	10c5b0 <system__secondary_stack__ss_allocate>
  10515c:	e1a04000 	mov	r4, r0
  105160:	e5808000 	str	r8, [r0]
  105164:	e5806004 	str	r6, [r0, #4]
  105168:	e2806008 	add	r6, r0, #8
  10516c:	e1a02007 	mov	r2, r7
  105170:	e1a0100d 	mov	r1, sp
  105174:	e1a00006 	mov	r0, r6
  105178:	fa002bd4 	blx	1100d0 <memcpy>
  10517c:	e5856000 	str	r6, [r5]
  105180:	e5854004 	str	r4, [r5, #4]
  105184:	e1a00005 	mov	r0, r5
  105188:	e24bd018 	sub	sp, fp, #24
  10518c:	e8bd89f0 	pop	{r4, r5, r6, r7, r8, fp, pc}

00105190 <ada__exceptions__exception_data__set_exception_c_msg__append_number.6680>:
  105190:	e3500000 	cmp	r0, #0
  105194:	da00002b 	ble	105248 <ada__exceptions__exception_data__set_exception_c_msg__append_number.6680+0xb8>
  105198:	e92d4030 	push	{r4, r5, lr}
  10519c:	e1a03000 	mov	r3, r0
  1051a0:	e3a02001 	mov	r2, #1
  1051a4:	e3061667 	movw	r1, #26215	; 0x6667
  1051a8:	e3461666 	movt	r1, #26214	; 0x6666
  1051ac:	e0c54193 	smull	r4, r5, r3, r1
  1051b0:	e1a03fc3 	asr	r3, r3, #31
  1051b4:	e0633145 	rsb	r3, r3, r5, asr #2
  1051b8:	e2822001 	add	r2, r2, #1
  1051bc:	e3530000 	cmp	r3, #0
  1051c0:	cafffff9 	bgt	1051ac <ada__exceptions__exception_data__set_exception_c_msg__append_number.6680+0x1c>
  1051c4:	e59c3004 	ldr	r3, [ip, #4]
  1051c8:	e5931008 	ldr	r1, [r3, #8]
  1051cc:	e262e0c8 	rsb	lr, r2, #200	; 0xc8
  1051d0:	e15e0001 	cmp	lr, r1
  1051d4:	ba00001a 	blt	105244 <ada__exceptions__exception_data__set_exception_c_msg__append_number.6680+0xb4>
  1051d8:	e0833001 	add	r3, r3, r1
  1051dc:	e3a0103a 	mov	r1, #58	; 0x3a
  1051e0:	e5c3100c 	strb	r1, [r3, #12]
  1051e4:	e59c1004 	ldr	r1, [ip, #4]
  1051e8:	e5913008 	ldr	r3, [r1, #8]
  1051ec:	e0832002 	add	r2, r3, r2
  1051f0:	e5812008 	str	r2, [r1, #8]
  1051f4:	e3a0e000 	mov	lr, #0
  1051f8:	e3064667 	movw	r4, #26215	; 0x6667
  1051fc:	e3464666 	movt	r4, #26214	; 0x6666
  105200:	e0c32490 	smull	r2, r3, r0, r4
  105204:	e1a01143 	asr	r1, r3, #2
  105208:	e1a02fc0 	asr	r2, r0, #31
  10520c:	e0413002 	sub	r3, r1, r2
  105210:	e0833103 	add	r3, r3, r3, lsl #2
  105214:	e0403083 	sub	r3, r0, r3, lsl #1
  105218:	e58c3000 	str	r3, [ip]
  10521c:	e0410002 	sub	r0, r1, r2
  105220:	e59c2004 	ldr	r2, [ip, #4]
  105224:	e5921008 	ldr	r1, [r2, #8]
  105228:	e041100e 	sub	r1, r1, lr
  10522c:	e0822001 	add	r2, r2, r1
  105230:	e2833030 	add	r3, r3, #48	; 0x30
  105234:	e5c2300b 	strb	r3, [r2, #11]
  105238:	e28ee001 	add	lr, lr, #1
  10523c:	e3500000 	cmp	r0, #0
  105240:	caffffee 	bgt	105200 <ada__exceptions__exception_data__set_exception_c_msg__append_number.6680+0x70>
  105244:	e8bd8030 	pop	{r4, r5, pc}
  105248:	e12fff1e 	bx	lr

0010524c <ada__exceptions__exception_data__set_exception_c_msgXn>:
  10524c:	e92d4070 	push	{r4, r5, r6, lr}
  105250:	e24dd010 	sub	sp, sp, #16
  105254:	e59d4024 	ldr	r4, [sp, #36]	; 0x24
  105258:	e28dc020 	add	ip, sp, #32
  10525c:	e58dc00c 	str	ip, [sp, #12]
  105260:	e58d0008 	str	r0, [sp, #8]
  105264:	e3a0c000 	mov	ip, #0
  105268:	e5c0c0d4 	strb	ip, [r0, #212]	; 0xd4
  10526c:	e5801000 	str	r1, [r0]
  105270:	e580c0dc 	str	ip, [r0, #220]	; 0xdc
  105274:	e30414fc 	movw	r1, #17660	; 0x44fc
  105278:	e3401011 	movt	r1, #17
  10527c:	e5911000 	ldr	r1, [r1]
  105280:	e58010d8 	str	r1, [r0, #216]	; 0xd8
  105284:	e580c008 	str	ip, [r0, #8]
  105288:	e5d21000 	ldrb	r1, [r2]
  10528c:	e151000c 	cmp	r1, ip
  105290:	0a00000e 	beq	1052d0 <ada__exceptions__exception_data__set_exception_c_msgXn+0x84>
  105294:	e280e00b 	add	lr, r0, #11
  105298:	e3a0c001 	mov	ip, #1
  10529c:	e1a0100c 	mov	r1, ip
  1052a0:	e580c008 	str	ip, [r0, #8]
  1052a4:	e5d25000 	ldrb	r5, [r2]
  1052a8:	e5ee5001 	strb	r5, [lr, #1]!
  1052ac:	e5f25001 	ldrb	r5, [r2, #1]!
  1052b0:	e35c00c7 	cmp	ip, #199	; 0xc7
  1052b4:	c3a01000 	movgt	r1, #0
  1052b8:	d3a01001 	movle	r1, #1
  1052bc:	e3550000 	cmp	r5, #0
  1052c0:	03a01000 	moveq	r1, #0
  1052c4:	e28cc001 	add	ip, ip, #1
  1052c8:	e3510000 	cmp	r1, #0
  1052cc:	1afffff2 	bne	10529c <ada__exceptions__exception_data__set_exception_c_msgXn+0x50>
  1052d0:	e28dc004 	add	ip, sp, #4
  1052d4:	e1a00003 	mov	r0, r3
  1052d8:	ebffffac 	bl	105190 <ada__exceptions__exception_data__set_exception_c_msg__append_number.6680>
  1052dc:	e28dc004 	add	ip, sp, #4
  1052e0:	e59d0020 	ldr	r0, [sp, #32]
  1052e4:	ebffffa9 	bl	105190 <ada__exceptions__exception_data__set_exception_c_msg__append_number.6680>
  1052e8:	e3540000 	cmp	r4, #0
  1052ec:	0a00001c 	beq	105364 <ada__exceptions__exception_data__set_exception_c_msgXn+0x118>
  1052f0:	e59d2008 	ldr	r2, [sp, #8]
  1052f4:	e5923008 	ldr	r3, [r2, #8]
  1052f8:	e35300c6 	cmp	r3, #198	; 0xc6
  1052fc:	ca000018 	bgt	105364 <ada__exceptions__exception_data__set_exception_c_msgXn+0x118>
  105300:	e2831001 	add	r1, r3, #1
  105304:	e5821008 	str	r1, [r2, #8]
  105308:	e0820001 	add	r0, r2, r1
  10530c:	e3a0c020 	mov	ip, #32
  105310:	e5c0c00b 	strb	ip, [r0, #11]
  105314:	e5d40000 	ldrb	r0, [r4]
  105318:	e3500000 	cmp	r0, #0
  10531c:	0a000010 	beq	105364 <ada__exceptions__exception_data__set_exception_c_msgXn+0x118>
  105320:	e35100c7 	cmp	r1, #199	; 0xc7
  105324:	ca00000e 	bgt	105364 <ada__exceptions__exception_data__set_exception_c_msgXn+0x118>
  105328:	e283300d 	add	r3, r3, #13
  10532c:	e0823003 	add	r3, r2, r3
  105330:	e282c0d4 	add	ip, r2, #212	; 0xd4
  105334:	e30f0ff5 	movw	r0, #65525	; 0xfff5
  105338:	e34f0fff 	movt	r0, #65535	; 0xffff
  10533c:	e0400002 	sub	r0, r0, r2
  105340:	e0801003 	add	r1, r0, r3
  105344:	e5821008 	str	r1, [r2, #8]
  105348:	e5d41000 	ldrb	r1, [r4]
  10534c:	e4c31001 	strb	r1, [r3], #1
  105350:	e5f41001 	ldrb	r1, [r4, #1]!
  105354:	e3510000 	cmp	r1, #0
  105358:	0a000001 	beq	105364 <ada__exceptions__exception_data__set_exception_c_msgXn+0x118>
  10535c:	e153000c 	cmp	r3, ip
  105360:	1afffff6 	bne	105340 <ada__exceptions__exception_data__set_exception_c_msgXn+0xf4>
  105364:	e28dd010 	add	sp, sp, #16
  105368:	e8bd8070 	pop	{r4, r5, r6, pc}

0010536c <ada__exceptions__exception_data__set_exception_msgXn>:
  10536c:	e92d4070 	push	{r4, r5, r6, lr}
  105370:	e1a04000 	mov	r4, r0
  105374:	e1a06001 	mov	r6, r1
  105378:	e1a01002 	mov	r1, r2
  10537c:	e5930000 	ldr	r0, [r3]
  105380:	e5932004 	ldr	r2, [r3, #4]
  105384:	e1520000 	cmp	r2, r0
  105388:	b3a02000 	movlt	r2, #0
  10538c:	ba000003 	blt	1053a0 <ada__exceptions__exception_data__set_exception_msgXn+0x34>
  105390:	e0422000 	sub	r2, r2, r0
  105394:	e2822001 	add	r2, r2, #1
  105398:	e35200c8 	cmp	r2, #200	; 0xc8
  10539c:	a3a020c8 	movge	r2, #200	; 0xc8
  1053a0:	e3a05000 	mov	r5, #0
  1053a4:	e5c450d4 	strb	r5, [r4, #212]	; 0xd4
  1053a8:	e5842008 	str	r2, [r4, #8]
  1053ac:	e1c22fc2 	bic	r2, r2, r2, asr #31
  1053b0:	e284000c 	add	r0, r4, #12
  1053b4:	fa002b80 	blx	1101bc <memmove>
  1053b8:	e5846000 	str	r6, [r4]
  1053bc:	e58450dc 	str	r5, [r4, #220]	; 0xdc
  1053c0:	e30434fc 	movw	r3, #17660	; 0x44fc
  1053c4:	e3403011 	movt	r3, #17
  1053c8:	e5933000 	ldr	r3, [r3]
  1053cc:	e58430d8 	str	r3, [r4, #216]	; 0xd8
  1053d0:	e8bd8070 	pop	{r4, r5, r6, pc}

001053d4 <ada__exceptions__exception_data__tailored_exception_tracebackXn>:
  1053d4:	e92d4010 	push	{r4, lr}
  1053d8:	e24dd008 	sub	sp, sp, #8
  1053dc:	e1a04000 	mov	r4, r0
  1053e0:	e3043478 	movw	r3, #17528	; 0x4478
  1053e4:	e3403011 	movt	r3, #17
  1053e8:	e5933000 	ldr	r3, [r3]
  1053ec:	e3530000 	cmp	r3, #0
  1053f0:	0a000008 	beq	105418 <ada__exceptions__exception_data__tailored_exception_tracebackXn+0x44>
  1053f4:	e59120dc 	ldr	r2, [r1, #220]	; 0xdc
  1053f8:	e28110e0 	add	r1, r1, #224	; 0xe0
  1053fc:	e1a0000d 	mov	r0, sp
  105400:	e12fff33 	blx	r3
  105404:	e1cd20d0 	ldrd	r2, [sp]
  105408:	e1c420f0 	strd	r2, [r4]
  10540c:	e1a00004 	mov	r0, r4
  105410:	e28dd008 	add	sp, sp, #8
  105414:	e8bd8010 	pop	{r4, pc}
  105418:	e1a0000d 	mov	r0, sp
  10541c:	ebffff13 	bl	105070 <ada__exceptions__exception_data__untailored_exception_tracebackXn>
  105420:	e1cd20d0 	ldrd	r2, [sp]
  105424:	e1c420f0 	strd	r2, [r4]
  105428:	eafffff7 	b	10540c <ada__exceptions__exception_data__tailored_exception_tracebackXn+0x38>

0010542c <ada__exceptions__exception_data__untailored_exception_traceback_maxlengthXn>:
  10542c:	e59000dc 	ldr	r0, [r0, #220]	; 0xdc
  105430:	e0803100 	add	r3, r0, r0, lsl #2
  105434:	e0600103 	rsb	r0, r0, r3, lsl #2
  105438:	e2800042 	add	r0, r0, #66	; 0x42
  10543c:	e12fff1e 	bx	lr

00105440 <ada__exceptions__exception_propagation__allocate_occurrenceXn>:
  105440:	e92d4010 	push	{r4, lr}
  105444:	eb0019b1 	bl	10bb10 <system__exceptions__machine__new_occurrence>
  105448:	e3053460 	movw	r3, #21600	; 0x5460
  10544c:	e3403010 	movt	r3, #16
  105450:	e5803008 	str	r3, [r0, #8]
  105454:	e580005c 	str	r0, [r0, #92]	; 0x5c
  105458:	e2800058 	add	r0, r0, #88	; 0x58
  10545c:	e8bd8010 	pop	{r4, pc}

00105460 <ada__exceptions__exception_propagation__gnat_gcc_exception_cleanupXn>:
  105460:	e2510000 	subs	r0, r1, #0
  105464:	0a000002 	beq	105474 <ada__exceptions__exception_propagation__gnat_gcc_exception_cleanupXn+0x14>
  105468:	e92d4010 	push	{r4, lr}
  10546c:	eb001c1c 	bl	10c4e4 <__gnat_free>
  105470:	e8bd8010 	pop	{r4, pc}
  105474:	e12fff1e 	bx	lr

00105478 <ada__exceptions__exception_propagation__set_foreign_occurrenceXn>:
  105478:	e30434fc 	movw	r3, #17660	; 0x44fc
  10547c:	e3403011 	movt	r3, #17
  105480:	e5932000 	ldr	r2, [r3]
  105484:	e30433f4 	movw	r3, #17396	; 0x43f4
  105488:	e3403011 	movt	r3, #17
  10548c:	e5803000 	str	r3, [r0]
  105490:	e5801004 	str	r1, [r0, #4]
  105494:	e3a03000 	mov	r3, #0
  105498:	e5803008 	str	r3, [r0, #8]
  10549c:	e3a01001 	mov	r1, #1
  1054a0:	e5c010d4 	strb	r1, [r0, #212]	; 0xd4
  1054a4:	e58020d8 	str	r2, [r0, #216]	; 0xd8
  1054a8:	e58030dc 	str	r3, [r0, #220]	; 0xdc
  1054ac:	e12fff1e 	bx	lr

001054b0 <__gnat_setup_current_excep>:
  1054b0:	e92d4070 	push	{r4, r5, r6, lr}
  1054b4:	e1a04000 	mov	r4, r0
  1054b8:	eb001c98 	bl	10c720 <system__soft_links__get_current_excep_soft>
  1054bc:	e1a05000 	mov	r5, r0
  1054c0:	e3a02008 	mov	r2, #8
  1054c4:	e3021298 	movw	r1, #8856	; 0x2298
  1054c8:	e3401011 	movt	r1, #17
  1054cc:	e1a00004 	mov	r0, r4
  1054d0:	fa002ae6 	blx	110070 <memcmp>
  1054d4:	e3500000 	cmp	r0, #0
  1054d8:	1a000007 	bne	1054fc <__gnat_setup_current_excep+0x4c>
  1054dc:	e2844058 	add	r4, r4, #88	; 0x58
  1054e0:	e3a02f6a 	mov	r2, #424	; 0x1a8
  1054e4:	e1a01004 	mov	r1, r4
  1054e8:	e1a00005 	mov	r0, r5
  1054ec:	fa002af7 	blx	1100d0 <memcpy>
  1054f0:	e1a05004 	mov	r5, r4
  1054f4:	e1a00005 	mov	r0, r5
  1054f8:	e8bd8070 	pop	{r4, r5, r6, pc}
  1054fc:	e1a01004 	mov	r1, r4
  105500:	e1a00005 	mov	r0, r5
  105504:	ebffffdb 	bl	105478 <ada__exceptions__exception_propagation__set_foreign_occurrenceXn>
  105508:	eafffff9 	b	1054f4 <__gnat_setup_current_excep+0x44>

0010550c <__gnat_begin_handler>:
  10550c:	e12fff1e 	bx	lr

00105510 <__gnat_end_handler>:
  105510:	e3500000 	cmp	r0, #0
  105514:	0a000002 	beq	105524 <__gnat_end_handler+0x14>
  105518:	e92d4010 	push	{r4, lr}
  10551c:	fa002f41 	blx	111228 <_Unwind_DeleteException>
  105520:	e8bd8010 	pop	{r4, pc}
  105524:	e12fff1e 	bx	lr

00105528 <__gnat_reraise_zcx>:
  105528:	e92d4010 	push	{r4, lr}
  10552c:	ebffffff 	bl	105530 <ada__exceptions__exception_propagation__propagate_gcc_exceptionXn>

00105530 <ada__exceptions__exception_propagation__propagate_gcc_exceptionXn>:
  105530:	e92d4010 	push	{r4, lr}
  105534:	e1a04000 	mov	r4, r0
  105538:	eb0011d0 	bl	109c80 <__gnat_Unwind_RaiseException>
  10553c:	e1a00004 	mov	r0, r4
  105540:	ebffffda 	bl	1054b0 <__gnat_setup_current_excep>
  105544:	eb0000a9 	bl	1057f0 <__gnat_notify_unhandled_exception>
  105548:	e3a02000 	mov	r2, #0
  10554c:	e3091c5c 	movw	r1, #40028	; 0x9c5c
  105550:	e3401010 	movt	r1, #16
  105554:	e1a00004 	mov	r0, r4
  105558:	eb0011c9 	bl	109c84 <__gnat_Unwind_ForcedUnwind>
  10555c:	e1a00004 	mov	r0, r4
  105560:	eb000014 	bl	1055b8 <__gnat_unhandled_except_handler>

00105564 <ada__exceptions__exception_propagation__propagate_exceptionXn>:
  105564:	e92d4010 	push	{r4, lr}
  105568:	e5900004 	ldr	r0, [r0, #4]
  10556c:	ebffffef 	bl	105530 <ada__exceptions__exception_propagation__propagate_gcc_exceptionXn>

00105570 <__gnat_set_exception_parameter>:
  105570:	e92d4070 	push	{r4, r5, r6, lr}
  105574:	e1a05000 	mov	r5, r0
  105578:	e1a04001 	mov	r4, r1
  10557c:	e3a02008 	mov	r2, #8
  105580:	e3021298 	movw	r1, #8856	; 0x2298
  105584:	e3401011 	movt	r1, #17
  105588:	e1a00004 	mov	r0, r4
  10558c:	fa002ab7 	blx	110070 <memcmp>
  105590:	e3500000 	cmp	r0, #0
  105594:	0a000003 	beq	1055a8 <__gnat_set_exception_parameter+0x38>
  105598:	e1a01004 	mov	r1, r4
  10559c:	e1a00005 	mov	r0, r5
  1055a0:	ebffffb4 	bl	105478 <ada__exceptions__exception_propagation__set_foreign_occurrenceXn>
  1055a4:	e8bd8070 	pop	{r4, r5, r6, pc}
  1055a8:	e2841058 	add	r1, r4, #88	; 0x58
  1055ac:	e1a00005 	mov	r0, r5
  1055b0:	eb000680 	bl	106fb8 <ada__exceptions__save_occurrence>
  1055b4:	eafffffa 	b	1055a4 <__gnat_set_exception_parameter+0x34>

001055b8 <__gnat_unhandled_except_handler>:
  1055b8:	e92d4010 	push	{r4, lr}
  1055bc:	ebffffbb 	bl	1054b0 <__gnat_setup_current_excep>
  1055c0:	eb000096 	bl	105820 <ada__exceptions__exception_traces__unhandled_exception_terminateXn>

001055c4 <__gnat_eid_for>:
  1055c4:	e5900058 	ldr	r0, [r0, #88]	; 0x58
  1055c8:	e12fff1e 	bx	lr

001055cc <__gnat_foreign_data_for>:
  1055cc:	e5900010 	ldr	r0, [r0, #16]
  1055d0:	e12fff1e 	bx	lr

001055d4 <__gnat_is_handled_by_others>:
  1055d4:	e5d00000 	ldrb	r0, [r0]
  1055d8:	e2200001 	eor	r0, r0, #1
  1055dc:	e12fff1e 	bx	lr

001055e0 <__gnat_language_for>:
  1055e0:	e5d00001 	ldrb	r0, [r0, #1]
  1055e4:	e12fff1e 	bx	lr

001055e8 <ada__exceptions__exception_traces__notify_exception__B281b___finalizerXn.6941>:
  1055e8:	e92d4010 	push	{r4, lr}
  1055ec:	e59c0000 	ldr	r0, [ip]
  1055f0:	eb001c44 	bl	10c708 <system__secondary_stack__ss_release>
  1055f4:	e8bd8010 	pop	{r4, pc}

001055f8 <ada__exceptions__exception_traces__notify_exceptionXn>:
  1055f8:	e92d4030 	push	{r4, r5, lr}
  1055fc:	e24dd014 	sub	sp, sp, #20
  105600:	e1a04000 	mov	r4, r0
  105604:	e28d3020 	add	r3, sp, #32
  105608:	e58d300c 	str	r3, [sp, #12]
  10560c:	e5903000 	ldr	r3, [r0]
  105610:	e5d33000 	ldrb	r3, [r3]
  105614:	e3530000 	cmp	r3, #0
  105618:	0a000016 	beq	105678 <ada__exceptions__exception_traces__notify_exceptionXn+0x80>
  10561c:	e3043394 	movw	r3, #17300	; 0x4394
  105620:	e3403011 	movt	r3, #17
  105624:	e5d33000 	ldrb	r3, [r3]
  105628:	e31300ff 	tst	r3, #255	; 0xff
  10562c:	0a000005 	beq	105648 <ada__exceptions__exception_traces__notify_exceptionXn+0x50>
  105630:	e5943000 	ldr	r3, [r4]
  105634:	e5933014 	ldr	r3, [r3, #20]
  105638:	e3530000 	cmp	r3, #0
  10563c:	0a000001 	beq	105648 <ada__exceptions__exception_traces__notify_exceptionXn+0x50>
  105640:	e1a00004 	mov	r0, r4
  105644:	e12fff33 	blx	r3
  105648:	e3043390 	movw	r3, #17296	; 0x4390
  10564c:	e3403011 	movt	r3, #17
  105650:	e5933000 	ldr	r3, [r3]
  105654:	e3530000 	cmp	r3, #0
  105658:	0a000004 	beq	105670 <ada__exceptions__exception_traces__notify_exceptionXn+0x78>
  10565c:	e3043390 	movw	r3, #17296	; 0x4390
  105660:	e3403011 	movt	r3, #17
  105664:	e5933000 	ldr	r3, [r3]
  105668:	e1a00004 	mov	r0, r4
  10566c:	e12fff33 	blx	r3
  105670:	e28dd014 	add	sp, sp, #20
  105674:	e8bd8030 	pop	{r4, r5, pc}
  105678:	e1a05001 	mov	r5, r1
  10567c:	e30434fa 	movw	r3, #17658	; 0x44fa
  105680:	e3403011 	movt	r3, #17
  105684:	e5d33000 	ldrb	r3, [r3]
  105688:	e6ef3073 	uxtb	r3, r3
  10568c:	e3530001 	cmp	r3, #1
  105690:	1a000020 	bne	105718 <ada__exceptions__exception_traces__notify_exceptionXn+0x120>
  105694:	e3043470 	movw	r3, #17520	; 0x4470
  105698:	e3403011 	movt	r3, #17
  10569c:	e5933000 	ldr	r3, [r3]
  1056a0:	e12fff33 	blx	r3
  1056a4:	e30200a4 	movw	r0, #8356	; 0x20a4
  1056a8:	e3400011 	movt	r0, #17
  1056ac:	e30210a8 	movw	r1, #8360	; 0x20a8
  1056b0:	e3401011 	movt	r1, #17
  1056b4:	eb00066d 	bl	107070 <__gnat_to_stderr>
  1056b8:	e30434fa 	movw	r3, #17658	; 0x44fa
  1056bc:	e3403011 	movt	r3, #17
  1056c0:	e5d33000 	ldrb	r3, [r3]
  1056c4:	e6ef3073 	uxtb	r3, r3
  1056c8:	e3530003 	cmp	r3, #3
  1056cc:	0a00000b 	beq	105700 <ada__exceptions__exception_traces__notify_exceptionXn+0x108>
  1056d0:	e3550000 	cmp	r5, #0
  1056d4:	1a000026 	bne	105774 <ada__exceptions__exception_traces__notify_exceptionXn+0x17c>
  1056d8:	e30202ac 	movw	r0, #8876	; 0x22ac
  1056dc:	e3400011 	movt	r0, #17
  1056e0:	e30210b0 	movw	r1, #8368	; 0x20b0
  1056e4:	e3401011 	movt	r1, #17
  1056e8:	eb000660 	bl	107070 <__gnat_to_stderr>
  1056ec:	e30200a4 	movw	r0, #8356	; 0x20a4
  1056f0:	e3400011 	movt	r0, #17
  1056f4:	e30210a8 	movw	r1, #8360	; 0x20a8
  1056f8:	e3401011 	movt	r1, #17
  1056fc:	eb00065b 	bl	107070 <__gnat_to_stderr>
  105700:	eb001bfc 	bl	10c6f8 <system__secondary_stack__ss_mark>
  105704:	e58d0008 	str	r0, [sp, #8]
  105708:	e1a01004 	mov	r1, r4
  10570c:	e1a0000d 	mov	r0, sp
  105710:	eb0001eb 	bl	105ec4 <ada__exceptions__exception_information>
  105714:	ea000023 	b	1057a8 <ada__exceptions__exception_traces__notify_exceptionXn+0x1b0>
  105718:	e3510000 	cmp	r1, #0
  10571c:	0affffbe 	beq	10561c <ada__exceptions__exception_traces__notify_exceptionXn+0x24>
  105720:	e30434fa 	movw	r3, #17658	; 0x44fa
  105724:	e3403011 	movt	r3, #17
  105728:	e5d33000 	ldrb	r3, [r3]
  10572c:	e6ef3073 	uxtb	r3, r3
  105730:	e3530002 	cmp	r3, #2
  105734:	1a000014 	bne	10578c <ada__exceptions__exception_traces__notify_exceptionXn+0x194>
  105738:	e3043470 	movw	r3, #17520	; 0x4470
  10573c:	e3403011 	movt	r3, #17
  105740:	e5933000 	ldr	r3, [r3]
  105744:	e12fff33 	blx	r3
  105748:	e30200a4 	movw	r0, #8356	; 0x20a4
  10574c:	e3400011 	movt	r0, #17
  105750:	e30210a8 	movw	r1, #8360	; 0x20a8
  105754:	e3401011 	movt	r1, #17
  105758:	eb000644 	bl	107070 <__gnat_to_stderr>
  10575c:	e30434fa 	movw	r3, #17658	; 0x44fa
  105760:	e3403011 	movt	r3, #17
  105764:	e5d33000 	ldrb	r3, [r3]
  105768:	e6ef3073 	uxtb	r3, r3
  10576c:	e3530003 	cmp	r3, #3
  105770:	0affffe2 	beq	105700 <ada__exceptions__exception_traces__notify_exceptionXn+0x108>
  105774:	e30202a0 	movw	r0, #8864	; 0x22a0
  105778:	e3400011 	movt	r0, #17
  10577c:	e30210b8 	movw	r1, #8376	; 0x20b8
  105780:	e3401011 	movt	r1, #17
  105784:	eb000639 	bl	107070 <__gnat_to_stderr>
  105788:	eaffffd2 	b	1056d8 <ada__exceptions__exception_traces__notify_exceptionXn+0xe0>
  10578c:	e30434fa 	movw	r3, #17658	; 0x44fa
  105790:	e3403011 	movt	r3, #17
  105794:	e5d33000 	ldrb	r3, [r3]
  105798:	e6ef3073 	uxtb	r3, r3
  10579c:	e3530003 	cmp	r3, #3
  1057a0:	1affff9d 	bne	10561c <ada__exceptions__exception_traces__notify_exceptionXn+0x24>
  1057a4:	eaffffe3 	b	105738 <ada__exceptions__exception_traces__notify_exceptionXn+0x140>
  1057a8:	e1cd00d0 	ldrd	r0, [sp]
  1057ac:	eb00062f 	bl	107070 <__gnat_to_stderr>
  1057b0:	e28dc008 	add	ip, sp, #8
  1057b4:	ebffff8b 	bl	1055e8 <ada__exceptions__exception_traces__notify_exception__B281b___finalizerXn.6941>
  1057b8:	e304347c 	movw	r3, #17532	; 0x447c
  1057bc:	e3403011 	movt	r3, #17
  1057c0:	e5933000 	ldr	r3, [r3]
  1057c4:	e12fff33 	blx	r3
  1057c8:	eaffff93 	b	10561c <ada__exceptions__exception_traces__notify_exceptionXn+0x24>
  1057cc:	e1a04000 	mov	r4, r0
  1057d0:	e28dc008 	add	ip, sp, #8
  1057d4:	ebffff83 	bl	1055e8 <ada__exceptions__exception_traces__notify_exception__B281b___finalizerXn.6941>
  1057d8:	e1a00004 	mov	r0, r4
  1057dc:	fa00308a 	blx	111a0c <_Unwind_Resume>

001057e0 <__gnat_notify_handled_exception>:
  1057e0:	e92d4010 	push	{r4, lr}
  1057e4:	e3a01000 	mov	r1, #0
  1057e8:	ebffff82 	bl	1055f8 <ada__exceptions__exception_traces__notify_exceptionXn>
  1057ec:	e8bd8010 	pop	{r4, pc}

001057f0 <__gnat_notify_unhandled_exception>:
  1057f0:	e92d4010 	push	{r4, lr}
  1057f4:	e1a04000 	mov	r4, r0
  1057f8:	e3043474 	movw	r3, #17524	; 0x4474
  1057fc:	e3403011 	movt	r3, #17
  105800:	e5933000 	ldr	r3, [r3]
  105804:	e12fff33 	blx	r3
  105808:	e3a01001 	mov	r1, #1
  10580c:	e1a00004 	mov	r0, r4
  105810:	ebffff78 	bl	1055f8 <ada__exceptions__exception_traces__notify_exceptionXn>
  105814:	e5940000 	ldr	r0, [r4]
  105818:	eb0018a2 	bl	10baa8 <__gnat_unhandled_exception>
  10581c:	e8bd8010 	pop	{r4, pc}

00105820 <ada__exceptions__exception_traces__unhandled_exception_terminateXn>:
  105820:	e92d4010 	push	{r4, lr}
  105824:	e24ddf6a 	sub	sp, sp, #424	; 0x1a8
  105828:	e1a04000 	mov	r4, r0
  10582c:	e1a0000d 	mov	r0, sp
  105830:	ebfffc3d 	bl	10492c <ada__exceptions__exception_occurrenceIP>
  105834:	e1a01004 	mov	r1, r4
  105838:	e1a0000d 	mov	r0, sp
  10583c:	eb0005dd 	bl	106fb8 <ada__exceptions__save_occurrence>
  105840:	e1a0000d 	mov	r0, sp
  105844:	eb00227c 	bl	10e23c <__gnat_last_chance_handler>

00105848 <ada__exceptions__stream_attributes__eid_to_stringXn>:
  105848:	e92d4010 	push	{r4, lr}
  10584c:	e24dd008 	sub	sp, sp, #8
  105850:	e1a04000 	mov	r4, r0
  105854:	e3510000 	cmp	r1, #0
  105858:	0a000006 	beq	105878 <ada__exceptions__stream_attributes__eid_to_stringXn+0x30>
  10585c:	e1a0000d 	mov	r0, sp
  105860:	eb0001c5 	bl	105f7c <ada__exceptions__exception_name>
  105864:	e1cd20d0 	ldrd	r2, [sp]
  105868:	e1c420f0 	strd	r2, [r4]
  10586c:	e1a00004 	mov	r0, r4
  105870:	e28dd008 	add	sp, sp, #8
  105874:	e8bd8010 	pop	{r4, pc}
  105878:	e3a00008 	mov	r0, #8
  10587c:	eb001b4b 	bl	10c5b0 <system__secondary_stack__ss_allocate>
  105880:	e3a03001 	mov	r3, #1
  105884:	e5803000 	str	r3, [r0]
  105888:	e3a03000 	mov	r3, #0
  10588c:	e5803004 	str	r3, [r0, #4]
  105890:	e2803008 	add	r3, r0, #8
  105894:	e5843000 	str	r3, [r4]
  105898:	e5840004 	str	r0, [r4, #4]
  10589c:	eafffff2 	b	10586c <ada__exceptions__stream_attributes__eid_to_stringXn+0x24>

001058a0 <ada__exceptions__stream_attributes__eo_to_stringXn>:
  1058a0:	e92d4010 	push	{r4, lr}
  1058a4:	e24dd008 	sub	sp, sp, #8
  1058a8:	e1a04000 	mov	r4, r0
  1058ac:	e5913000 	ldr	r3, [r1]
  1058b0:	e3530000 	cmp	r3, #0
  1058b4:	0a000006 	beq	1058d4 <ada__exceptions__stream_attributes__eo_to_stringXn+0x34>
  1058b8:	e1a0000d 	mov	r0, sp
  1058bc:	ebfffe0f 	bl	105100 <ada__exceptions__exception_data__untailored_exception_informationXn>
  1058c0:	e1cd20d0 	ldrd	r2, [sp]
  1058c4:	e1c420f0 	strd	r2, [r4]
  1058c8:	e1a00004 	mov	r0, r4
  1058cc:	e28dd008 	add	sp, sp, #8
  1058d0:	e8bd8010 	pop	{r4, pc}
  1058d4:	e3a00008 	mov	r0, #8
  1058d8:	eb001b34 	bl	10c5b0 <system__secondary_stack__ss_allocate>
  1058dc:	e3a03001 	mov	r3, #1
  1058e0:	e5803000 	str	r3, [r0]
  1058e4:	e3a03000 	mov	r3, #0
  1058e8:	e5803004 	str	r3, [r0, #4]
  1058ec:	e2803008 	add	r3, r0, #8
  1058f0:	e5843000 	str	r3, [r4]
  1058f4:	e5840004 	str	r0, [r4, #4]
  1058f8:	eafffff2 	b	1058c8 <ada__exceptions__stream_attributes__eo_to_stringXn+0x28>

001058fc <ada__exceptions__stream_attributes__string_to_eidXn>:
  1058fc:	e5912000 	ldr	r2, [r1]
  105900:	e5913004 	ldr	r3, [r1, #4]
  105904:	e1520003 	cmp	r2, r3
  105908:	ca000003 	bgt	10591c <ada__exceptions__stream_attributes__string_to_eidXn+0x20>
  10590c:	e92d4010 	push	{r4, lr}
  105910:	e3a02001 	mov	r2, #1
  105914:	eb00196f 	bl	10bed8 <system__exception_table__internal_exception>
  105918:	e8bd8010 	pop	{r4, pc}
  10591c:	e3a00000 	mov	r0, #0
  105920:	e12fff1e 	bx	lr

00105924 <ada__exceptions__stream_attributes__string_to_eo__bad_eo.6986>:
  105924:	e92d4010 	push	{r4, lr}
  105928:	e30212c0 	movw	r1, #8896	; 0x22c0
  10592c:	e3401011 	movt	r1, #17
  105930:	e30220c0 	movw	r2, #8384	; 0x20c0
  105934:	e3402011 	movt	r2, #17
  105938:	e30404c8 	movw	r0, #17608	; 0x44c8
  10593c:	e3400011 	movt	r0, #17
  105940:	eb000246 	bl	106260 <__gnat_raise_exception>

00105944 <ada__exceptions__stream_attributes__string_to_eoXn>:
  105944:	e92d47f0 	push	{r4, r5, r6, r7, r8, r9, sl, lr}
  105948:	e24dde1d 	sub	sp, sp, #464	; 0x1d0
  10594c:	e1a09000 	mov	r9, r0
  105950:	e58d1000 	str	r1, [sp]
  105954:	e58d2004 	str	r2, [sp, #4]
  105958:	e28d3e1f 	add	r3, sp, #496	; 0x1f0
  10595c:	e58d31cc 	str	r3, [sp, #460]	; 0x1cc
  105960:	e58dd1c0 	str	sp, [sp, #448]	; 0x1c0
  105964:	e5923000 	ldr	r3, [r2]
  105968:	e58d31bc 	str	r3, [sp, #444]	; 0x1bc
  10596c:	e28d000c 	add	r0, sp, #12
  105970:	ebfffbed 	bl	10492c <ada__exceptions__exception_occurrenceIP>
  105974:	e59d2004 	ldr	r2, [sp, #4]
  105978:	e5923000 	ldr	r3, [r2]
  10597c:	e5922004 	ldr	r2, [r2, #4]
  105980:	e1520003 	cmp	r2, r3
  105984:	aa000007 	bge	1059a8 <ada__exceptions__stream_attributes__string_to_eoXn+0x64>
  105988:	e3a02f6a 	mov	r2, #424	; 0x1a8
  10598c:	e30210c8 	movw	r1, #8392	; 0x20c8
  105990:	e3401011 	movt	r1, #17
  105994:	e1a00009 	mov	r0, r9
  105998:	fa0029cc 	blx	1100d0 <memcpy>
  10599c:	e1a00009 	mov	r0, r9
  1059a0:	e28dde1d 	add	sp, sp, #464	; 0x1d0
  1059a4:	e8bd87f0 	pop	{r4, r5, r6, r7, r8, r9, sl, pc}
  1059a8:	e2433002 	sub	r3, r3, #2
  1059ac:	e58d31c8 	str	r3, [sp, #456]	; 0x1c8
  1059b0:	e28dcf6f 	add	ip, sp, #444	; 0x1bc
  1059b4:	eb0000de 	bl	105d34 <ada__exceptions__stream_attributes__string_to_eo__next_string.6988>
  1059b8:	e59d51c4 	ldr	r5, [sp, #452]	; 0x1c4
  1059bc:	e59d6000 	ldr	r6, [sp]
  1059c0:	e59d71bc 	ldr	r7, [sp, #444]	; 0x1bc
  1059c4:	e0454007 	sub	r4, r5, r7
  1059c8:	e3a02007 	mov	r2, #7
  1059cc:	e3021324 	movw	r1, #8996	; 0x2324
  1059d0:	e3401011 	movt	r1, #17
  1059d4:	e0860004 	add	r0, r6, r4
  1059d8:	fa0029a4 	blx	110070 <memcmp>
  1059dc:	e3500000 	cmp	r0, #0
  1059e0:	1a00006a 	bne	105b90 <ada__exceptions__stream_attributes__string_to_eoXn+0x24c>
  1059e4:	e285c007 	add	ip, r5, #7
  1059e8:	e2852008 	add	r2, r5, #8
  1059ec:	e58d21c4 	str	r2, [sp, #452]	; 0x1c4
  1059f0:	e59d11c8 	ldr	r1, [sp, #456]	; 0x1c8
  1059f4:	e1520001 	cmp	r2, r1
  1059f8:	aa00000f 	bge	105a3c <ada__exceptions__stream_attributes__string_to_eoXn+0xf8>
  1059fc:	e0423007 	sub	r3, r2, r7
  105a00:	e7d63003 	ldrb	r3, [r6, r3]
  105a04:	e3530020 	cmp	r3, #32
  105a08:	0a00000b 	beq	105a3c <ada__exceptions__stream_attributes__string_to_eoXn+0xf8>
  105a0c:	e2843009 	add	r3, r4, #9
  105a10:	e0863003 	add	r3, r6, r3
  105a14:	e0811006 	add	r1, r1, r6
  105a18:	e0411007 	sub	r1, r1, r7
  105a1c:	e047e006 	sub	lr, r7, r6
  105a20:	e08e2003 	add	r2, lr, r3
  105a24:	e58d21c4 	str	r2, [sp, #452]	; 0x1c4
  105a28:	e1530001 	cmp	r3, r1
  105a2c:	0a000002 	beq	105a3c <ada__exceptions__stream_attributes__string_to_eoXn+0xf8>
  105a30:	e4d30001 	ldrb	r0, [r3], #1
  105a34:	e3500020 	cmp	r0, #32
  105a38:	1afffff8 	bne	105a20 <ada__exceptions__stream_attributes__string_to_eoXn+0xdc>
  105a3c:	e04c0007 	sub	r0, ip, r7
  105a40:	e58dc1b4 	str	ip, [sp, #436]	; 0x1b4
  105a44:	e2422001 	sub	r2, r2, #1
  105a48:	e58d21b8 	str	r2, [sp, #440]	; 0x1b8
  105a4c:	e3a02001 	mov	r2, #1
  105a50:	e0860000 	add	r0, r6, r0
  105a54:	e28d1f6d 	add	r1, sp, #436	; 0x1b4
  105a58:	eb00191e 	bl	10bed8 <system__exception_table__internal_exception>
  105a5c:	e58d000c 	str	r0, [sp, #12]
  105a60:	e59d41c4 	ldr	r4, [sp, #452]	; 0x1c4
  105a64:	e59d51c8 	ldr	r5, [sp, #456]	; 0x1c8
  105a68:	e1540005 	cmp	r4, r5
  105a6c:	ca000049 	bgt	105b98 <ada__exceptions__stream_attributes__string_to_eoXn+0x254>
  105a70:	e59d6000 	ldr	r6, [sp]
  105a74:	e59d71bc 	ldr	r7, [sp, #444]	; 0x1bc
  105a78:	e0440007 	sub	r0, r4, r7
  105a7c:	e3a02003 	mov	r2, #3
  105a80:	e3021068 	movw	r1, #8296	; 0x2068
  105a84:	e3401011 	movt	r1, #17
  105a88:	e0860000 	add	r0, r6, r0
  105a8c:	fa002977 	blx	110070 <memcmp>
  105a90:	e3500000 	cmp	r0, #0
  105a94:	1a00003e 	bne	105b94 <ada__exceptions__stream_attributes__string_to_eoXn+0x250>
  105a98:	e0452004 	sub	r2, r5, r4
  105a9c:	e2422002 	sub	r2, r2, #2
  105aa0:	e58d2014 	str	r2, [sp, #20]
  105aa4:	e2841003 	add	r1, r4, #3
  105aa8:	e0411007 	sub	r1, r1, r7
  105aac:	e1c22fc2 	bic	r2, r2, r2, asr #31
  105ab0:	e0861001 	add	r1, r6, r1
  105ab4:	e28d0018 	add	r0, sp, #24
  105ab8:	fa0029bf 	blx	1101bc <memmove>
  105abc:	e28dcf6f 	add	ip, sp, #444	; 0x1bc
  105ac0:	eb00009b 	bl	105d34 <ada__exceptions__stream_attributes__string_to_eo__next_string.6988>
  105ac4:	e3a03000 	mov	r3, #0
  105ac8:	e58d30e4 	str	r3, [sp, #228]	; 0xe4
  105acc:	e59d51c4 	ldr	r5, [sp, #452]	; 0x1c4
  105ad0:	e59d71c8 	ldr	r7, [sp, #456]	; 0x1c8
  105ad4:	e1550007 	cmp	r5, r7
  105ad8:	ca000005 	bgt	105af4 <ada__exceptions__stream_attributes__string_to_eoXn+0x1b0>
  105adc:	e59d6000 	ldr	r6, [sp]
  105ae0:	e59d41bc 	ldr	r4, [sp, #444]	; 0x1bc
  105ae4:	e0453004 	sub	r3, r5, r4
  105ae8:	e7d63003 	ldrb	r3, [r6, r3]
  105aec:	e3530050 	cmp	r3, #80	; 0x50
  105af0:	0a00002b 	beq	105ba4 <ada__exceptions__stream_attributes__string_to_eoXn+0x260>
  105af4:	e3a03000 	mov	r3, #0
  105af8:	e58d30e8 	str	r3, [sp, #232]	; 0xe8
  105afc:	e59d31c4 	ldr	r3, [sp, #452]	; 0x1c4
  105b00:	e59d21c8 	ldr	r2, [sp, #456]	; 0x1c8
  105b04:	e1530002 	cmp	r3, r2
  105b08:	ca000080 	bgt	105d10 <ada__exceptions__stream_attributes__string_to_eoXn+0x3cc>
  105b0c:	e0422003 	sub	r2, r2, r3
  105b10:	e352001e 	cmp	r2, #30
  105b14:	1a000044 	bne	105c2c <ada__exceptions__stream_attributes__string_to_eoXn+0x2e8>
  105b18:	e59d21bc 	ldr	r2, [sp, #444]	; 0x1bc
  105b1c:	e0433002 	sub	r3, r3, r2
  105b20:	e3a0201f 	mov	r2, #31
  105b24:	e30212f4 	movw	r1, #8948	; 0x22f4
  105b28:	e3401011 	movt	r1, #17
  105b2c:	e59d0000 	ldr	r0, [sp]
  105b30:	e0800003 	add	r0, r0, r3
  105b34:	fa00294d 	blx	110070 <memcmp>
  105b38:	e3500000 	cmp	r0, #0
  105b3c:	1a00003a 	bne	105c2c <ada__exceptions__stream_attributes__string_to_eoXn+0x2e8>
  105b40:	e28dcf6f 	add	ip, sp, #444	; 0x1bc
  105b44:	eb00007a 	bl	105d34 <ada__exceptions__stream_attributes__string_to_eo__next_string.6988>
  105b48:	e59dc1c4 	ldr	ip, [sp, #452]	; 0x1c4
  105b4c:	e59d41c8 	ldr	r4, [sp, #456]	; 0x1c8
  105b50:	e15c0004 	cmp	ip, r4
  105b54:	ca00006d 	bgt	105d10 <ada__exceptions__stream_attributes__string_to_eoXn+0x3cc>
  105b58:	e59d5000 	ldr	r5, [sp]
  105b5c:	e59d61bc 	ldr	r6, [sp, #444]	; 0x1bc
  105b60:	e04c3006 	sub	r3, ip, r6
  105b64:	e7d53003 	ldrb	r3, [r5, r3]
  105b68:	e3530030 	cmp	r3, #48	; 0x30
  105b6c:	1a00002f 	bne	105c30 <ada__exceptions__stream_attributes__string_to_eoXn+0x2ec>
  105b70:	e28c3001 	add	r3, ip, #1
  105b74:	e0433006 	sub	r3, r3, r6
  105b78:	e7d53003 	ldrb	r3, [r5, r3]
  105b7c:	e3530078 	cmp	r3, #120	; 0x78
  105b80:	1a00002a 	bne	105c30 <ada__exceptions__stream_attributes__string_to_eoXn+0x2ec>
  105b84:	e3a07000 	mov	r7, #0
  105b88:	e2668002 	rsb	r8, r6, #2
  105b8c:	ea000041 	b	105c98 <ada__exceptions__stream_attributes__string_to_eoXn+0x354>
  105b90:	ebffff63 	bl	105924 <ada__exceptions__stream_attributes__string_to_eo__bad_eo.6986>
  105b94:	ebffff62 	bl	105924 <ada__exceptions__stream_attributes__string_to_eo__bad_eo.6986>
  105b98:	e3a03000 	mov	r3, #0
  105b9c:	e58d3014 	str	r3, [sp, #20]
  105ba0:	eaffffc5 	b	105abc <ada__exceptions__stream_attributes__string_to_eoXn+0x178>
  105ba4:	e0458004 	sub	r8, r5, r4
  105ba8:	e3a02004 	mov	r2, #4
  105bac:	e30212ec 	movw	r1, #8940	; 0x22ec
  105bb0:	e3401011 	movt	r1, #17
  105bb4:	e0860008 	add	r0, r6, r8
  105bb8:	fa00292c 	blx	110070 <memcmp>
  105bbc:	e3500000 	cmp	r0, #0
  105bc0:	1a000018 	bne	105c28 <ada__exceptions__stream_attributes__string_to_eoXn+0x2e4>
  105bc4:	e2855005 	add	r5, r5, #5
  105bc8:	e58d51c4 	str	r5, [sp, #452]	; 0x1c4
  105bcc:	e1570005 	cmp	r7, r5
  105bd0:	ba000011 	blt	105c1c <ada__exceptions__stream_attributes__string_to_eoXn+0x2d8>
  105bd4:	e2881004 	add	r1, r8, #4
  105bd8:	e0861001 	add	r1, r6, r1
  105bdc:	e1a0e006 	mov	lr, r6
  105be0:	e086c007 	add	ip, r6, r7
  105be4:	e04cc004 	sub	ip, ip, r4
  105be8:	e2811001 	add	r1, r1, #1
  105bec:	e1a03001 	mov	r3, r1
  105bf0:	e6d32004 	ldrb	r2, [r3], r4
  105bf4:	e59d00e4 	ldr	r0, [sp, #228]	; 0xe4
  105bf8:	e0800100 	add	r0, r0, r0, lsl #2
  105bfc:	e2422030 	sub	r2, r2, #48	; 0x30
  105c00:	e0822080 	add	r2, r2, r0, lsl #1
  105c04:	e58d20e4 	str	r2, [sp, #228]	; 0xe4
  105c08:	e2833001 	add	r3, r3, #1
  105c0c:	e043300e 	sub	r3, r3, lr
  105c10:	e58d31c4 	str	r3, [sp, #452]	; 0x1c4
  105c14:	e151000c 	cmp	r1, ip
  105c18:	1afffff2 	bne	105be8 <ada__exceptions__stream_attributes__string_to_eoXn+0x2a4>
  105c1c:	e28dcf6f 	add	ip, sp, #444	; 0x1bc
  105c20:	eb000043 	bl	105d34 <ada__exceptions__stream_attributes__string_to_eo__next_string.6988>
  105c24:	eaffffb2 	b	105af4 <ada__exceptions__stream_attributes__string_to_eoXn+0x1b0>
  105c28:	ebffff3d 	bl	105924 <ada__exceptions__stream_attributes__string_to_eo__bad_eo.6986>
  105c2c:	ebffff3c 	bl	105924 <ada__exceptions__stream_attributes__string_to_eo__bad_eo.6986>
  105c30:	ebffff3b 	bl	105924 <ada__exceptions__stream_attributes__string_to_eo__bad_eo.6986>
  105c34:	e3530020 	cmp	r3, #32
  105c38:	1a00001f 	bne	105cbc <ada__exceptions__stream_attributes__string_to_eoXn+0x378>
  105c3c:	e2822001 	add	r2, r2, #1
  105c40:	e58d21c4 	str	r2, [sp, #452]	; 0x1c4
  105c44:	e59da0e8 	ldr	sl, [sp, #232]	; 0xe8
  105c48:	e35a0032 	cmp	sl, #50	; 0x32
  105c4c:	0a00002e 	beq	105d0c <ada__exceptions__stream_attributes__string_to_eoXn+0x3c8>
  105c50:	e28a3001 	add	r3, sl, #1
  105c54:	e58d30e8 	str	r3, [sp, #232]	; 0xe8
  105c58:	eb001d44 	bl	10d170 <system__traceback_entries__tb_entry_for>
  105c5c:	e28d3e1d 	add	r3, sp, #464	; 0x1d0
  105c60:	e083310a 	add	r3, r3, sl, lsl #2
  105c64:	e50300e4 	str	r0, [r3, #-228]	; 0xffffff1c
  105c68:	e59dc1c4 	ldr	ip, [sp, #452]	; 0x1c4
  105c6c:	e154000c 	cmp	r4, ip
  105c70:	ba000026 	blt	105d10 <ada__exceptions__stream_attributes__string_to_eoXn+0x3cc>
  105c74:	e04c3006 	sub	r3, ip, r6
  105c78:	e7d53003 	ldrb	r3, [r5, r3]
  105c7c:	e3530030 	cmp	r3, #48	; 0x30
  105c80:	1affffea 	bne	105c30 <ada__exceptions__stream_attributes__string_to_eoXn+0x2ec>
  105c84:	e28c3001 	add	r3, ip, #1
  105c88:	e0433006 	sub	r3, r3, r6
  105c8c:	e7d53003 	ldrb	r3, [r5, r3]
  105c90:	e3530078 	cmp	r3, #120	; 0x78
  105c94:	1affffe5 	bne	105c30 <ada__exceptions__stream_attributes__string_to_eoXn+0x2ec>
  105c98:	e28c2002 	add	r2, ip, #2
  105c9c:	e58d21c4 	str	r2, [sp, #452]	; 0x1c4
  105ca0:	e1540002 	cmp	r4, r2
  105ca4:	ba000016 	blt	105d04 <ada__exceptions__stream_attributes__string_to_eoXn+0x3c0>
  105ca8:	e088c00c 	add	ip, r8, ip
  105cac:	e24cc001 	sub	ip, ip, #1
  105cb0:	e085c00c 	add	ip, r5, ip
  105cb4:	e1a00007 	mov	r0, r7
  105cb8:	ea000005 	b	105cd4 <ada__exceptions__stream_attributes__string_to_eoXn+0x390>
  105cbc:	ebffff18 	bl	105924 <ada__exceptions__stream_attributes__string_to_eo__bad_eo.6986>
  105cc0:	e0830200 	add	r0, r3, r0, lsl #4
  105cc4:	e2822001 	add	r2, r2, #1
  105cc8:	e58d21c4 	str	r2, [sp, #452]	; 0x1c4
  105ccc:	e1540002 	cmp	r4, r2
  105cd0:	baffffdb 	blt	105c44 <ada__exceptions__stream_attributes__string_to_eoXn+0x300>
  105cd4:	e5fc3001 	ldrb	r3, [ip, #1]!
  105cd8:	e2431030 	sub	r1, r3, #48	; 0x30
  105cdc:	e6ef1071 	uxtb	r1, r1
  105ce0:	e3510009 	cmp	r1, #9
  105ce4:	92433030 	subls	r3, r3, #48	; 0x30
  105ce8:	9afffff4 	bls	105cc0 <ada__exceptions__stream_attributes__string_to_eoXn+0x37c>
  105cec:	e2431061 	sub	r1, r3, #97	; 0x61
  105cf0:	e6ef1071 	uxtb	r1, r1
  105cf4:	e3510005 	cmp	r1, #5
  105cf8:	8affffcd 	bhi	105c34 <ada__exceptions__stream_attributes__string_to_eoXn+0x2f0>
  105cfc:	e2433057 	sub	r3, r3, #87	; 0x57
  105d00:	eaffffee 	b	105cc0 <ada__exceptions__stream_attributes__string_to_eoXn+0x37c>
  105d04:	e1a00007 	mov	r0, r7
  105d08:	eaffffcd 	b	105c44 <ada__exceptions__stream_attributes__string_to_eoXn+0x300>
  105d0c:	ebffff04 	bl	105924 <ada__exceptions__stream_attributes__string_to_eo__bad_eo.6986>
  105d10:	e3a03000 	mov	r3, #0
  105d14:	e58d3010 	str	r3, [sp, #16]
  105d18:	e3a03001 	mov	r3, #1
  105d1c:	e5cd30e0 	strb	r3, [sp, #224]	; 0xe0
  105d20:	e3a02f6a 	mov	r2, #424	; 0x1a8
  105d24:	e28d100c 	add	r1, sp, #12
  105d28:	e1a00009 	mov	r0, r9
  105d2c:	fa0028e7 	blx	1100d0 <memcpy>
  105d30:	eaffff19 	b	10599c <ada__exceptions__stream_attributes__string_to_eoXn+0x58>

00105d34 <ada__exceptions__stream_attributes__string_to_eo__next_string.6988>:
  105d34:	e59c300c 	ldr	r3, [ip, #12]
  105d38:	e2832002 	add	r2, r3, #2
  105d3c:	e58c2008 	str	r2, [ip, #8]
  105d40:	e59c1004 	ldr	r1, [ip, #4]
  105d44:	e5910004 	ldr	r0, [r1, #4]
  105d48:	e5900004 	ldr	r0, [r0, #4]
  105d4c:	e1500002 	cmp	r0, r2
  105d50:	da000021 	ble	105ddc <ada__exceptions__stream_attributes__string_to_eo__next_string.6988+0xa8>
  105d54:	e92d4010 	push	{r4, lr}
  105d58:	e2832003 	add	r2, r3, #3
  105d5c:	e58c200c 	str	r2, [ip, #12]
  105d60:	e5910004 	ldr	r0, [r1, #4]
  105d64:	e5900004 	ldr	r0, [r0, #4]
  105d68:	e240e001 	sub	lr, r0, #1
  105d6c:	e152000e 	cmp	r2, lr
  105d70:	aa000017 	bge	105dd4 <ada__exceptions__stream_attributes__string_to_eo__next_string.6988+0xa0>
  105d74:	e1520000 	cmp	r2, r0
  105d78:	aa000016 	bge	105dd8 <ada__exceptions__stream_attributes__string_to_eo__next_string.6988+0xa4>
  105d7c:	e5910000 	ldr	r0, [r1]
  105d80:	e59ce000 	ldr	lr, [ip]
  105d84:	e2832004 	add	r2, r3, #4
  105d88:	e042200e 	sub	r2, r2, lr
  105d8c:	e7d02002 	ldrb	r2, [r0, r2]
  105d90:	e352000a 	cmp	r2, #10
  105d94:	0a00000e 	beq	105dd4 <ada__exceptions__stream_attributes__string_to_eo__next_string.6988+0xa0>
  105d98:	e2833004 	add	r3, r3, #4
  105d9c:	e58c300c 	str	r3, [ip, #12]
  105da0:	e5912004 	ldr	r2, [r1, #4]
  105da4:	e5922004 	ldr	r2, [r2, #4]
  105da8:	e2420001 	sub	r0, r2, #1
  105dac:	e1500003 	cmp	r0, r3
  105db0:	da000007 	ble	105dd4 <ada__exceptions__stream_attributes__string_to_eo__next_string.6988+0xa0>
  105db4:	e1520003 	cmp	r2, r3
  105db8:	da000006 	ble	105dd8 <ada__exceptions__stream_attributes__string_to_eo__next_string.6988+0xa4>
  105dbc:	e5910000 	ldr	r0, [r1]
  105dc0:	e2833001 	add	r3, r3, #1
  105dc4:	e043200e 	sub	r2, r3, lr
  105dc8:	e7d02002 	ldrb	r2, [r0, r2]
  105dcc:	e352000a 	cmp	r2, #10
  105dd0:	1afffff1 	bne	105d9c <ada__exceptions__stream_attributes__string_to_eo__next_string.6988+0x68>
  105dd4:	e8bd8010 	pop	{r4, pc}
  105dd8:	ebfffed1 	bl	105924 <ada__exceptions__stream_attributes__string_to_eo__bad_eo.6986>
  105ddc:	e12fff1e 	bx	lr

00105de0 <ada__exceptions__poll>:
  105de0:	e12fff1e 	bx	lr

00105de4 <ada__exceptions__code_address_for_aaa>:
  105de4:	e59f0000 	ldr	r0, [pc]	; 105dec <ada__exceptions__code_address_for_aaa+0x8>
  105de8:	e12fff1e 	bx	lr
  105dec:	00105de4 	andseq	r5, r0, r4, ror #27

00105df0 <ada__exceptions__call_chain>:
  105df0:	e3043420 	movw	r3, #17440	; 0x4420
  105df4:	e3403011 	movt	r3, #17
  105df8:	e5933000 	ldr	r3, [r3]
  105dfc:	e3530000 	cmp	r3, #0
  105e00:	0a000002 	beq	105e10 <ada__exceptions__call_chain+0x20>
  105e04:	e59030dc 	ldr	r3, [r0, #220]	; 0xdc
  105e08:	e3530000 	cmp	r3, #0
  105e0c:	0a000000 	beq	105e14 <ada__exceptions__call_chain+0x24>
  105e10:	e12fff1e 	bx	lr
  105e14:	e92d4030 	push	{r4, r5, lr}
  105e18:	e24dd0d4 	sub	sp, sp, #212	; 0xd4
  105e1c:	e1a04000 	mov	r4, r0
  105e20:	ebffffef 	bl	105de4 <ada__exceptions__code_address_for_aaa>
  105e24:	e1a05000 	mov	r5, r0
  105e28:	eb000587 	bl	10744c <ada__exceptions__code_address_for_zzz>
  105e2c:	e3a03005 	mov	r3, #5
  105e30:	e58d3004 	str	r3, [sp, #4]
  105e34:	e58d0000 	str	r0, [sp]
  105e38:	e1a03005 	mov	r3, r5
  105e3c:	e3a02032 	mov	r2, #50	; 0x32
  105e40:	e28d0008 	add	r0, sp, #8
  105e44:	e3021270 	movw	r1, #8816	; 0x2270
  105e48:	e3401011 	movt	r1, #17
  105e4c:	eb001cb2 	bl	10d11c <system__traceback__call_chain>
  105e50:	e58400dc 	str	r0, [r4, #220]	; 0xdc
  105e54:	e3a020c8 	mov	r2, #200	; 0xc8
  105e58:	e28d1008 	add	r1, sp, #8
  105e5c:	e28400e0 	add	r0, r4, #224	; 0xe0
  105e60:	fa00289a 	blx	1100d0 <memcpy>
  105e64:	e28dd0d4 	add	sp, sp, #212	; 0xd4
  105e68:	e8bd8030 	pop	{r4, r5, pc}

00105e6c <ada__exceptions__eid_to_string>:
  105e6c:	e92d4010 	push	{r4, lr}
  105e70:	e24dd008 	sub	sp, sp, #8
  105e74:	e1a04000 	mov	r4, r0
  105e78:	e1a0000d 	mov	r0, sp
  105e7c:	ebfffe71 	bl	105848 <ada__exceptions__stream_attributes__eid_to_stringXn>
  105e80:	e1cd20d0 	ldrd	r2, [sp]
  105e84:	e1c420f0 	strd	r2, [r4]
  105e88:	e1a00004 	mov	r0, r4
  105e8c:	e28dd008 	add	sp, sp, #8
  105e90:	e8bd8010 	pop	{r4, pc}

00105e94 <ada__exceptions__eo_to_string>:
  105e94:	e92d4010 	push	{r4, lr}
  105e98:	e24dd008 	sub	sp, sp, #8
  105e9c:	e1a04000 	mov	r4, r0
  105ea0:	e1a0000d 	mov	r0, sp
  105ea4:	ebfffe7d 	bl	1058a0 <ada__exceptions__stream_attributes__eo_to_stringXn>
  105ea8:	e1cd20d0 	ldrd	r2, [sp]
  105eac:	e1c420f0 	strd	r2, [r4]
  105eb0:	e1a00004 	mov	r0, r4
  105eb4:	e28dd008 	add	sp, sp, #8
  105eb8:	e8bd8010 	pop	{r4, pc}

00105ebc <ada__exceptions__exception_identity>:
  105ebc:	e5900000 	ldr	r0, [r0]
  105ec0:	e12fff1e 	bx	lr

00105ec4 <ada__exceptions__exception_information>:
  105ec4:	e92d4010 	push	{r4, lr}
  105ec8:	e24dd008 	sub	sp, sp, #8
  105ecc:	e5913000 	ldr	r3, [r1]
  105ed0:	e3530000 	cmp	r3, #0
  105ed4:	0a000007 	beq	105ef8 <ada__exceptions__exception_information+0x34>
  105ed8:	e1a04000 	mov	r4, r0
  105edc:	e1a0000d 	mov	r0, sp
  105ee0:	ebfffc1e 	bl	104f60 <ada__exceptions__exception_data__exception_informationXn>
  105ee4:	e1cd20d0 	ldrd	r2, [sp]
  105ee8:	e1c420f0 	strd	r2, [r4]
  105eec:	e1a00004 	mov	r0, r4
  105ef0:	e28dd008 	add	sp, sp, #8
  105ef4:	e8bd8010 	pop	{r4, pc}
  105ef8:	e3a01fbd 	mov	r1, #756	; 0x2f4
  105efc:	e3020278 	movw	r0, #8824	; 0x2278
  105f00:	e3400011 	movt	r0, #17
  105f04:	eb0001ee 	bl	1066c4 <__gnat_rcheck_CE_Explicit_Raise>

00105f08 <ada__exceptions__exception_message>:
  105f08:	e92d41f0 	push	{r4, r5, r6, r7, r8, lr}
  105f0c:	e5913000 	ldr	r3, [r1]
  105f10:	e3530000 	cmp	r3, #0
  105f14:	0a000014 	beq	105f6c <ada__exceptions__exception_message+0x64>
  105f18:	e1a07000 	mov	r7, r0
  105f1c:	e1a04001 	mov	r4, r1
  105f20:	e5916008 	ldr	r6, [r1, #8]
  105f24:	e1c66fc6 	bic	r6, r6, r6, asr #31
  105f28:	e286000b 	add	r0, r6, #11
  105f2c:	e3c00003 	bic	r0, r0, #3
  105f30:	eb00199e 	bl	10c5b0 <system__secondary_stack__ss_allocate>
  105f34:	e1a05000 	mov	r5, r0
  105f38:	e3a03001 	mov	r3, #1
  105f3c:	e5803000 	str	r3, [r0]
  105f40:	e5943008 	ldr	r3, [r4, #8]
  105f44:	e5803004 	str	r3, [r0, #4]
  105f48:	e2808008 	add	r8, r0, #8
  105f4c:	e1a02006 	mov	r2, r6
  105f50:	e284100c 	add	r1, r4, #12
  105f54:	e1a00008 	mov	r0, r8
  105f58:	fa00285c 	blx	1100d0 <memcpy>
  105f5c:	e5878000 	str	r8, [r7]
  105f60:	e5875004 	str	r5, [r7, #4]
  105f64:	e1a00007 	mov	r0, r7
  105f68:	e8bd81f0 	pop	{r4, r5, r6, r7, r8, pc}
  105f6c:	e3001301 	movw	r1, #769	; 0x301
  105f70:	e3020278 	movw	r0, #8824	; 0x2278
  105f74:	e3400011 	movt	r0, #17
  105f78:	eb0001d1 	bl	1066c4 <__gnat_rcheck_CE_Explicit_Raise>

00105f7c <ada__exceptions__exception_name>:
  105f7c:	e92d41f0 	push	{r4, r5, r6, r7, r8, lr}
  105f80:	e2517000 	subs	r7, r1, #0
  105f84:	0a000013 	beq	105fd8 <ada__exceptions__exception_name+0x5c>
  105f88:	e1a06000 	mov	r6, r0
  105f8c:	e5975004 	ldr	r5, [r7, #4]
  105f90:	e2455001 	sub	r5, r5, #1
  105f94:	e1c58fc5 	bic	r8, r5, r5, asr #31
  105f98:	e288000b 	add	r0, r8, #11
  105f9c:	e3c00003 	bic	r0, r0, #3
  105fa0:	eb001982 	bl	10c5b0 <system__secondary_stack__ss_allocate>
  105fa4:	e1a04000 	mov	r4, r0
  105fa8:	e3a03001 	mov	r3, #1
  105fac:	e5803000 	str	r3, [r0]
  105fb0:	e5805004 	str	r5, [r0, #4]
  105fb4:	e2805008 	add	r5, r0, #8
  105fb8:	e1a02008 	mov	r2, r8
  105fbc:	e5971008 	ldr	r1, [r7, #8]
  105fc0:	e1a00005 	mov	r0, r5
  105fc4:	fa002841 	blx	1100d0 <memcpy>
  105fc8:	e5865000 	str	r5, [r6]
  105fcc:	e5864004 	str	r4, [r6, #4]
  105fd0:	e1a00006 	mov	r0, r6
  105fd4:	e8bd81f0 	pop	{r4, r5, r6, r7, r8, pc}
  105fd8:	e300130e 	movw	r1, #782	; 0x30e
  105fdc:	e3020278 	movw	r0, #8824	; 0x2278
  105fe0:	e3400011 	movt	r0, #17
  105fe4:	eb0001b6 	bl	1066c4 <__gnat_rcheck_CE_Explicit_Raise>

00105fe8 <ada__exceptions__exception_name__2>:
  105fe8:	e92d4010 	push	{r4, lr}
  105fec:	e24dd008 	sub	sp, sp, #8
  105ff0:	e1a04000 	mov	r4, r0
  105ff4:	e5911000 	ldr	r1, [r1]
  105ff8:	e1a0000d 	mov	r0, sp
  105ffc:	ebffffde 	bl	105f7c <ada__exceptions__exception_name>
  106000:	e1cd20d0 	ldrd	r2, [sp]
  106004:	e1c420f0 	strd	r2, [r4]
  106008:	e1a00004 	mov	r0, r4
  10600c:	e28dd008 	add	sp, sp, #8
  106010:	e8bd8010 	pop	{r4, pc}

00106014 <ada__exceptions__exception_name_simple>:
  106014:	e92d47f0 	push	{r4, r5, r6, r7, r8, r9, sl, lr}
  106018:	e24dd008 	sub	sp, sp, #8
  10601c:	e1a05000 	mov	r5, r0
  106020:	e1a0000d 	mov	r0, sp
  106024:	ebffffef 	bl	105fe8 <ada__exceptions__exception_name__2>
  106028:	e59d6000 	ldr	r6, [sp]
  10602c:	e59d3004 	ldr	r3, [sp, #4]
  106030:	e5937000 	ldr	r7, [r3]
  106034:	e5933004 	ldr	r3, [r3, #4]
  106038:	e1570003 	cmp	r7, r3
  10603c:	c3a01000 	movgt	r1, #0
  106040:	c1a04001 	movgt	r4, r1
  106044:	ca000011 	bgt	106090 <ada__exceptions__exception_name_simple+0x7c>
  106048:	e0433007 	sub	r3, r3, r7
  10604c:	e2831001 	add	r1, r3, #1
  106050:	e3510001 	cmp	r1, #1
  106054:	da000022 	ble	1060e4 <ada__exceptions__exception_name_simple+0xd0>
  106058:	e2412001 	sub	r2, r1, #1
  10605c:	e0422007 	sub	r2, r2, r7
  106060:	e7d62002 	ldrb	r2, [r6, r2]
  106064:	e352002e 	cmp	r2, #46	; 0x2e
  106068:	0a00001d 	beq	1060e4 <ada__exceptions__exception_name_simple+0xd0>
  10606c:	e0433007 	sub	r3, r3, r7
  106070:	e0863003 	add	r3, r6, r3
  106074:	e1a04001 	mov	r4, r1
  106078:	e2444001 	sub	r4, r4, #1
  10607c:	e3540001 	cmp	r4, #1
  106080:	0a000002 	beq	106090 <ada__exceptions__exception_name_simple+0x7c>
  106084:	e5732001 	ldrb	r2, [r3, #-1]!
  106088:	e352002e 	cmp	r2, #46	; 0x2e
  10608c:	1afffff9 	bne	106078 <ada__exceptions__exception_name_simple+0x64>
  106090:	e0411004 	sub	r1, r1, r4
  106094:	e2818001 	add	r8, r1, #1
  106098:	e1c8afc8 	bic	sl, r8, r8, asr #31
  10609c:	e28a000b 	add	r0, sl, #11
  1060a0:	e3c00003 	bic	r0, r0, #3
  1060a4:	eb001941 	bl	10c5b0 <system__secondary_stack__ss_allocate>
  1060a8:	e1a09000 	mov	r9, r0
  1060ac:	e3a03001 	mov	r3, #1
  1060b0:	e5803000 	str	r3, [r0]
  1060b4:	e5808004 	str	r8, [r0, #4]
  1060b8:	e2808008 	add	r8, r0, #8
  1060bc:	e0441007 	sub	r1, r4, r7
  1060c0:	e1a0200a 	mov	r2, sl
  1060c4:	e0861001 	add	r1, r6, r1
  1060c8:	e1a00008 	mov	r0, r8
  1060cc:	fa0027ff 	blx	1100d0 <memcpy>
  1060d0:	e5858000 	str	r8, [r5]
  1060d4:	e5859004 	str	r9, [r5, #4]
  1060d8:	e1a00005 	mov	r0, r5
  1060dc:	e28dd008 	add	sp, sp, #8
  1060e0:	e8bd87f0 	pop	{r4, r5, r6, r7, r8, r9, sl, pc}
  1060e4:	e1a04001 	mov	r4, r1
  1060e8:	eaffffe8 	b	106090 <ada__exceptions__exception_name_simple+0x7c>

001060ec <__gnat_get_exception_machine_occurrence>:
  1060ec:	e5900004 	ldr	r0, [r0, #4]
  1060f0:	e12fff1e 	bx	lr

001060f4 <ada__exceptions__image>:
  1060f4:	e92d41f0 	push	{r4, r5, r6, r7, r8, lr}
  1060f8:	e24dd010 	sub	sp, sp, #16
  1060fc:	e1a05000 	mov	r5, r0
  106100:	e1a00001 	mov	r0, r1
  106104:	e28d1004 	add	r1, sp, #4
  106108:	e3022288 	movw	r2, #8840	; 0x2288
  10610c:	e3402011 	movt	r2, #17
  106110:	eb001862 	bl	10c2a0 <system__img_int__image_integer>
  106114:	e1a06000 	mov	r6, r0
  106118:	e1c07fc0 	bic	r7, r0, r0, asr #31
  10611c:	e287000b 	add	r0, r7, #11
  106120:	e3c00003 	bic	r0, r0, #3
  106124:	eb001921 	bl	10c5b0 <system__secondary_stack__ss_allocate>
  106128:	e1a04000 	mov	r4, r0
  10612c:	e3a03001 	mov	r3, #1
  106130:	e5803000 	str	r3, [r0]
  106134:	e5806004 	str	r6, [r0, #4]
  106138:	e2808008 	add	r8, r0, #8
  10613c:	e1a02007 	mov	r2, r7
  106140:	e28d1004 	add	r1, sp, #4
  106144:	e1a00008 	mov	r0, r8
  106148:	fa0027e0 	blx	1100d0 <memcpy>
  10614c:	e5d43008 	ldrb	r3, [r4, #8]
  106150:	e3530020 	cmp	r3, #32
  106154:	15858000 	strne	r8, [r5]
  106158:	15854004 	strne	r4, [r5, #4]
  10615c:	0a000002 	beq	10616c <ada__exceptions__image+0x78>
  106160:	e1a00005 	mov	r0, r5
  106164:	e28dd010 	add	sp, sp, #16
  106168:	e8bd81f0 	pop	{r4, r5, r6, r7, r8, pc}
  10616c:	e3560001 	cmp	r6, #1
  106170:	a1a08006 	movge	r8, r6
  106174:	b3a08001 	movlt	r8, #1
  106178:	e288000a 	add	r0, r8, #10
  10617c:	e3c00003 	bic	r0, r0, #3
  106180:	eb00190a 	bl	10c5b0 <system__secondary_stack__ss_allocate>
  106184:	e1a07000 	mov	r7, r0
  106188:	e3a03002 	mov	r3, #2
  10618c:	e5803000 	str	r3, [r0]
  106190:	e5806004 	str	r6, [r0, #4]
  106194:	e2806008 	add	r6, r0, #8
  106198:	e2482001 	sub	r2, r8, #1
  10619c:	e2841009 	add	r1, r4, #9
  1061a0:	e1a00006 	mov	r0, r6
  1061a4:	fa0027c9 	blx	1100d0 <memcpy>
  1061a8:	e5856000 	str	r6, [r5]
  1061ac:	e5857004 	str	r7, [r5, #4]
  1061b0:	eaffffea 	b	106160 <ada__exceptions__image+0x6c>

001061b4 <__gnat_raise_constraint_error>:
  1061b4:	e52de004 	push	{lr}		; (str lr, [sp, #-4]!)
  1061b8:	e24dd00c 	sub	sp, sp, #12
  1061bc:	e3a03000 	mov	r3, #0
  1061c0:	e58d3000 	str	r3, [sp]
  1061c4:	e1a02001 	mov	r2, r1
  1061c8:	e1a01000 	mov	r1, r0
  1061cc:	e3040498 	movw	r0, #17560	; 0x4498
  1061d0:	e3400011 	movt	r0, #17
  1061d4:	eb000100 	bl	1065dc <ada__exceptions__raise_with_location_and_msg>

001061d8 <__gnat_raise_constraint_error_msg>:
  1061d8:	e52de004 	push	{lr}		; (str lr, [sp, #-4]!)
  1061dc:	e24dd00c 	sub	sp, sp, #12
  1061e0:	e58d3000 	str	r3, [sp]
  1061e4:	e1a03002 	mov	r3, r2
  1061e8:	e1a02001 	mov	r2, r1
  1061ec:	e1a01000 	mov	r1, r0
  1061f0:	e3040498 	movw	r0, #17560	; 0x4498
  1061f4:	e3400011 	movt	r0, #17
  1061f8:	eb0000f7 	bl	1065dc <ada__exceptions__raise_with_location_and_msg>

001061fc <ada__exceptions__complete_occurrence>:
  1061fc:	e92d4010 	push	{r4, lr}
  106200:	e24dd008 	sub	sp, sp, #8
  106204:	e1a04000 	mov	r4, r0
  106208:	ebfffef8 	bl	105df0 <ada__exceptions__call_chain>
  10620c:	e5943008 	ldr	r3, [r4, #8]
  106210:	e1a01004 	mov	r1, r4
  106214:	e491000c 	ldr	r0, [r1], #12
  106218:	e3a02001 	mov	r2, #1
  10621c:	e58d2000 	str	r2, [sp]
  106220:	e58d3004 	str	r3, [sp, #4]
  106224:	e1a0200d 	mov	r2, sp
  106228:	eb001616 	bl	10ba88 <__gnat_debug_raise_exception>
  10622c:	e28dd008 	add	sp, sp, #8
  106230:	e8bd8010 	pop	{r4, pc}

00106234 <ada__exceptions__complete_and_propagate_occurrence>:
  106234:	e92d4010 	push	{r4, lr}
  106238:	e1a04000 	mov	r4, r0
  10623c:	ebffffee 	bl	1061fc <ada__exceptions__complete_occurrence>
  106240:	e1a00004 	mov	r0, r4
  106244:	ebfffcc6 	bl	105564 <ada__exceptions__exception_propagation__propagate_exceptionXn>

00106248 <ada__exceptions__raise_exception>:
  106248:	e92d4010 	push	{r4, lr}
  10624c:	e3043498 	movw	r3, #17560	; 0x4498
  106250:	e3403011 	movt	r3, #17
  106254:	e3500000 	cmp	r0, #0
  106258:	01a00003 	moveq	r0, r3
  10625c:	ebffffff 	bl	106260 <__gnat_raise_exception>

00106260 <__gnat_raise_exception>:
  106260:	e92d41f0 	push	{r4, r5, r6, r7, r8, lr}
  106264:	e1a05000 	mov	r5, r0
  106268:	e1a07001 	mov	r7, r1
  10626c:	e1a06002 	mov	r6, r2
  106270:	ebfffc72 	bl	105440 <ada__exceptions__exception_propagation__allocate_occurrenceXn>
  106274:	e1a04000 	mov	r4, r0
  106278:	e1a02007 	mov	r2, r7
  10627c:	e1a03006 	mov	r3, r6
  106280:	e1a01005 	mov	r1, r5
  106284:	ebfffc38 	bl	10536c <ada__exceptions__exception_data__set_exception_msgXn>
  106288:	e1a00004 	mov	r0, r4
  10628c:	ebffffe8 	bl	106234 <ada__exceptions__complete_and_propagate_occurrence>

00106290 <ada__exceptions__raise_exception_no_defer>:
  106290:	e92d41f0 	push	{r4, r5, r6, r7, r8, lr}
  106294:	e1a05000 	mov	r5, r0
  106298:	e1a07001 	mov	r7, r1
  10629c:	e1a06002 	mov	r6, r2
  1062a0:	ebfffc66 	bl	105440 <ada__exceptions__exception_propagation__allocate_occurrenceXn>
  1062a4:	e1a04000 	mov	r4, r0
  1062a8:	e1a02007 	mov	r2, r7
  1062ac:	e1a03006 	mov	r3, r6
  1062b0:	e1a01005 	mov	r1, r5
  1062b4:	ebfffc2c 	bl	10536c <ada__exceptions__exception_data__set_exception_msgXn>
  1062b8:	e1a00004 	mov	r0, r4
  1062bc:	ebffffdc 	bl	106234 <ada__exceptions__complete_and_propagate_occurrence>

001062c0 <ada__exceptions__raise_from_controlled_operation___finalizer.7202>:
  1062c0:	e92d4010 	push	{r4, lr}
  1062c4:	e59c0004 	ldr	r0, [ip, #4]
  1062c8:	eb00190e 	bl	10c708 <system__secondary_stack__ss_release>
  1062cc:	e8bd8010 	pop	{r4, pc}

001062d0 <__gnat_raise_from_controlled_operation>:
  1062d0:	e92d4ff0 	push	{r4, r5, r6, r7, r8, r9, sl, fp, lr}
  1062d4:	e28db020 	add	fp, sp, #32
  1062d8:	e24dd03c 	sub	sp, sp, #60	; 0x3c
  1062dc:	e1a04000 	mov	r4, r0
  1062e0:	e28b3004 	add	r3, fp, #4
  1062e4:	e50b3028 	str	r3, [fp, #-40]	; 0xffffffd8
  1062e8:	eb001902 	bl	10c6f8 <system__secondary_stack__ss_mark>
  1062ec:	e50b002c 	str	r0, [fp, #-44]	; 0xffffffd4
  1062f0:	e1a01004 	mov	r1, r4
  1062f4:	e24b0054 	sub	r0, fp, #84	; 0x54
  1062f8:	ebffff02 	bl	105f08 <ada__exceptions__exception_message>
  1062fc:	e51b8054 	ldr	r8, [fp, #-84]	; 0xffffffac
  106300:	e51b3050 	ldr	r3, [fp, #-80]	; 0xffffffb0
  106304:	e5936000 	ldr	r6, [r3]
  106308:	e5935004 	ldr	r5, [r3, #4]
  10630c:	e1550006 	cmp	r5, r6
  106310:	b3a03000 	movlt	r3, #0
  106314:	ba000003 	blt	106328 <__gnat_raise_from_controlled_operation+0x58>
  106318:	e0453006 	sub	r3, r5, r6
  10631c:	e2833001 	add	r3, r3, #1
  106320:	e3530017 	cmp	r3, #23
  106324:	a3a03017 	movge	r3, #23
  106328:	e0863003 	add	r3, r6, r3
  10632c:	e2433017 	sub	r3, r3, #23
  106330:	e1530006 	cmp	r3, r6
  106334:	1a000006 	bne	106354 <__gnat_raise_from_controlled_operation+0x84>
  106338:	e3a02017 	mov	r2, #23
  10633c:	e3021314 	movw	r1, #8980	; 0x2314
  106340:	e3401011 	movt	r1, #17
  106344:	e1a00008 	mov	r0, r8
  106348:	fa002748 	blx	110070 <memcmp>
  10634c:	e3500000 	cmp	r0, #0
  106350:	0a000001 	beq	10635c <__gnat_raise_from_controlled_operation+0x8c>
  106354:	eb0018e7 	bl	10c6f8 <system__secondary_stack__ss_mark>
  106358:	ea000008 	b	106380 <__gnat_raise_from_controlled_operation+0xb0>
  10635c:	e50b6048 	str	r6, [fp, #-72]	; 0xffffffb8
  106360:	e50b5044 	str	r5, [fp, #-68]	; 0xffffffbc
  106364:	e1a01008 	mov	r1, r8
  106368:	e24b2048 	sub	r2, fp, #72	; 0x48
  10636c:	e30404c8 	movw	r0, #17608	; 0x44c8
  106370:	e3400011 	movt	r0, #17
  106374:	ebffffc5 	bl	106290 <ada__exceptions__raise_exception_no_defer>
  106378:	e1a04000 	mov	r4, r0
  10637c:	ea000051 	b	1064c8 <__gnat_raise_from_controlled_operation+0x1f8>
  106380:	e50b0030 	str	r0, [fp, #-48]	; 0xffffffd0
  106384:	e50bd058 	str	sp, [fp, #-88]	; 0xffffffa8
  106388:	e1a01004 	mov	r1, r4
  10638c:	e24b0054 	sub	r0, fp, #84	; 0x54
  106390:	ebffff14 	bl	105fe8 <ada__exceptions__exception_name__2>
  106394:	e51b9054 	ldr	r9, [fp, #-84]	; 0xffffffac
  106398:	e51b3050 	ldr	r3, [fp, #-80]	; 0xffffffb0
  10639c:	e5934004 	ldr	r4, [r3, #4]
  1063a0:	e5933000 	ldr	r3, [r3]
  1063a4:	e1540003 	cmp	r4, r3
  1063a8:	a0444003 	subge	r4, r4, r3
  1063ac:	a2844001 	addge	r4, r4, #1
  1063b0:	b3a04000 	movlt	r4, #0
  1063b4:	e2844017 	add	r4, r4, #23
  1063b8:	e1c47fc4 	bic	r7, r4, r4, asr #31
  1063bc:	e2873007 	add	r3, r7, #7
  1063c0:	e3c33007 	bic	r3, r3, #7
  1063c4:	e04dd003 	sub	sp, sp, r3
  1063c8:	e1a0a00d 	mov	sl, sp
  1063cc:	e3a02017 	mov	r2, #23
  1063d0:	e3021314 	movw	r1, #8980	; 0x2314
  1063d4:	e3401011 	movt	r1, #17
  1063d8:	e1a0000d 	mov	r0, sp
  1063dc:	fa00273b 	blx	1100d0 <memcpy>
  1063e0:	e3540017 	cmp	r4, #23
  1063e4:	a1a02004 	movge	r2, r4
  1063e8:	b3a02017 	movlt	r2, #23
  1063ec:	e2422017 	sub	r2, r2, #23
  1063f0:	e1a01009 	mov	r1, r9
  1063f4:	e28d0017 	add	r0, sp, #23
  1063f8:	fa002734 	blx	1100d0 <memcpy>
  1063fc:	e1550006 	cmp	r5, r6
  106400:	aa000009 	bge	10642c <__gnat_raise_from_controlled_operation+0x15c>
  106404:	e3a03001 	mov	r3, #1
  106408:	e50b3040 	str	r3, [fp, #-64]	; 0xffffffc0
  10640c:	e50b403c 	str	r4, [fp, #-60]	; 0xffffffc4
  106410:	e1a0100a 	mov	r1, sl
  106414:	e24b2040 	sub	r2, fp, #64	; 0x40
  106418:	e30404c8 	movw	r0, #17608	; 0x44c8
  10641c:	e3400011 	movt	r0, #17
  106420:	ebffff9a 	bl	106290 <ada__exceptions__raise_exception_no_defer>
  106424:	e1a04000 	mov	r4, r0
  106428:	ea000021 	b	1064b4 <__gnat_raise_from_controlled_operation+0x1e4>
  10642c:	e1a0900d 	mov	r9, sp
  106430:	e2874002 	add	r4, r7, #2
  106434:	e0455006 	sub	r5, r5, r6
  106438:	e2855001 	add	r5, r5, #1
  10643c:	e0855004 	add	r5, r5, r4
  106440:	e1c53fc5 	bic	r3, r5, r5, asr #31
  106444:	e2833007 	add	r3, r3, #7
  106448:	e3c33007 	bic	r3, r3, #7
  10644c:	e04dd003 	sub	sp, sp, r3
  106450:	e1c72fc7 	bic	r2, r7, r7, asr #31
  106454:	e1a0100a 	mov	r1, sl
  106458:	e1a0000d 	mov	r0, sp
  10645c:	fa00271b 	blx	1100d0 <memcpy>
  106460:	e3a02002 	mov	r2, #2
  106464:	e302132c 	movw	r1, #9004	; 0x232c
  106468:	e3401011 	movt	r1, #17
  10646c:	e08d0007 	add	r0, sp, r7
  106470:	fa002716 	blx	1100d0 <memcpy>
  106474:	e1540005 	cmp	r4, r5
  106478:	a0642004 	rsbge	r2, r4, r4
  10647c:	b0642005 	rsblt	r2, r4, r5
  106480:	e1a01008 	mov	r1, r8
  106484:	e08d0004 	add	r0, sp, r4
  106488:	fa002710 	blx	1100d0 <memcpy>
  10648c:	e3a03001 	mov	r3, #1
  106490:	e50b3038 	str	r3, [fp, #-56]	; 0xffffffc8
  106494:	e50b5034 	str	r5, [fp, #-52]	; 0xffffffcc
  106498:	e1a0100d 	mov	r1, sp
  10649c:	e24b2038 	sub	r2, fp, #56	; 0x38
  1064a0:	e30404c8 	movw	r0, #17608	; 0x44c8
  1064a4:	e3400011 	movt	r0, #17
  1064a8:	ebffff78 	bl	106290 <ada__exceptions__raise_exception_no_defer>
  1064ac:	e1a0d009 	mov	sp, r9
  1064b0:	e1a04000 	mov	r4, r0
  1064b4:	e24bc030 	sub	ip, fp, #48	; 0x30
  1064b8:	eb000007 	bl	1064dc <ada__exceptions__raise_from_controlled_operation__B_3___finalizer.7237>
  1064bc:	e1a00004 	mov	r0, r4
  1064c0:	e51bd058 	ldr	sp, [fp, #-88]	; 0xffffffa8
  1064c4:	e1a04000 	mov	r4, r0
  1064c8:	e24bc030 	sub	ip, fp, #48	; 0x30
  1064cc:	ebffff7b 	bl	1062c0 <ada__exceptions__raise_from_controlled_operation___finalizer.7202>
  1064d0:	e1a00004 	mov	r0, r4
  1064d4:	fa002d4c 	blx	111a0c <_Unwind_Resume>
  1064d8:	eafffff8 	b	1064c0 <__gnat_raise_from_controlled_operation+0x1f0>

001064dc <ada__exceptions__raise_from_controlled_operation__B_3___finalizer.7237>:
  1064dc:	e92d4010 	push	{r4, lr}
  1064e0:	e59c0000 	ldr	r0, [ip]
  1064e4:	eb001887 	bl	10c708 <system__secondary_stack__ss_release>
  1064e8:	e8bd8010 	pop	{r4, pc}

001064ec <ada__exceptions__create_occurrence_from_signal_handler>:
  1064ec:	e92d4070 	push	{r4, r5, r6, lr}
  1064f0:	e24dd008 	sub	sp, sp, #8
  1064f4:	e1a05000 	mov	r5, r0
  1064f8:	e1a06001 	mov	r6, r1
  1064fc:	ebfffbcf 	bl	105440 <ada__exceptions__exception_propagation__allocate_occurrenceXn>
  106500:	e1a04000 	mov	r4, r0
  106504:	e3a03000 	mov	r3, #0
  106508:	e58d3004 	str	r3, [sp, #4]
  10650c:	e58d3000 	str	r3, [sp]
  106510:	e1a02006 	mov	r2, r6
  106514:	e1a01005 	mov	r1, r5
  106518:	ebfffb4b 	bl	10524c <ada__exceptions__exception_data__set_exception_c_msgXn>
  10651c:	e1a00004 	mov	r0, r4
  106520:	ebffff35 	bl	1061fc <ada__exceptions__complete_occurrence>
  106524:	e1a00004 	mov	r0, r4
  106528:	e28dd008 	add	sp, sp, #8
  10652c:	e8bd8070 	pop	{r4, r5, r6, pc}

00106530 <__gnat_create_machine_occurrence_from_signal_handler>:
  106530:	e92d4010 	push	{r4, lr}
  106534:	ebffffec 	bl	1064ec <ada__exceptions__create_occurrence_from_signal_handler>
  106538:	e5900004 	ldr	r0, [r0, #4]
  10653c:	e8bd8010 	pop	{r4, pc}

00106540 <ada__exceptions__raise_from_signal_handler>:
  106540:	e92d4010 	push	{r4, lr}
  106544:	ebffffe8 	bl	1064ec <ada__exceptions__create_occurrence_from_signal_handler>
  106548:	ebfffc05 	bl	105564 <ada__exceptions__exception_propagation__propagate_exceptionXn>

0010654c <__gnat_raise_program_error>:
  10654c:	e52de004 	push	{lr}		; (str lr, [sp, #-4]!)
  106550:	e24dd00c 	sub	sp, sp, #12
  106554:	e3a03000 	mov	r3, #0
  106558:	e58d3000 	str	r3, [sp]
  10655c:	e1a02001 	mov	r2, r1
  106560:	e1a01000 	mov	r1, r0
  106564:	e30404c8 	movw	r0, #17608	; 0x44c8
  106568:	e3400011 	movt	r0, #17
  10656c:	eb00001a 	bl	1065dc <ada__exceptions__raise_with_location_and_msg>

00106570 <__gnat_raise_program_error_msg>:
  106570:	e52de004 	push	{lr}		; (str lr, [sp, #-4]!)
  106574:	e24dd00c 	sub	sp, sp, #12
  106578:	e58d2000 	str	r2, [sp]
  10657c:	e3a03000 	mov	r3, #0
  106580:	e1a02001 	mov	r2, r1
  106584:	e1a01000 	mov	r1, r0
  106588:	e30404c8 	movw	r0, #17608	; 0x44c8
  10658c:	e3400011 	movt	r0, #17
  106590:	eb000011 	bl	1065dc <ada__exceptions__raise_with_location_and_msg>

00106594 <__gnat_raise_storage_error>:
  106594:	e52de004 	push	{lr}		; (str lr, [sp, #-4]!)
  106598:	e24dd00c 	sub	sp, sp, #12
  10659c:	e3a03000 	mov	r3, #0
  1065a0:	e58d3000 	str	r3, [sp]
  1065a4:	e1a02001 	mov	r2, r1
  1065a8:	e1a01000 	mov	r1, r0
  1065ac:	e30404e0 	movw	r0, #17632	; 0x44e0
  1065b0:	e3400011 	movt	r0, #17
  1065b4:	eb000008 	bl	1065dc <ada__exceptions__raise_with_location_and_msg>

001065b8 <__gnat_raise_storage_error_msg>:
  1065b8:	e52de004 	push	{lr}		; (str lr, [sp, #-4]!)
  1065bc:	e24dd00c 	sub	sp, sp, #12
  1065c0:	e58d2000 	str	r2, [sp]
  1065c4:	e3a03000 	mov	r3, #0
  1065c8:	e1a02001 	mov	r2, r1
  1065cc:	e1a01000 	mov	r1, r0
  1065d0:	e30404e0 	movw	r0, #17632	; 0x44e0
  1065d4:	e3400011 	movt	r0, #17
  1065d8:	ebffffff 	bl	1065dc <ada__exceptions__raise_with_location_and_msg>

001065dc <ada__exceptions__raise_with_location_and_msg>:
  1065dc:	e92d41f0 	push	{r4, r5, r6, r7, r8, lr}
  1065e0:	e24dd008 	sub	sp, sp, #8
  1065e4:	e1a05000 	mov	r5, r0
  1065e8:	e1a06001 	mov	r6, r1
  1065ec:	e1a07002 	mov	r7, r2
  1065f0:	e1a08003 	mov	r8, r3
  1065f4:	ebfffb91 	bl	105440 <ada__exceptions__exception_propagation__allocate_occurrenceXn>
  1065f8:	e1a04000 	mov	r4, r0
  1065fc:	e59d3020 	ldr	r3, [sp, #32]
  106600:	e58d3004 	str	r3, [sp, #4]
  106604:	e58d8000 	str	r8, [sp]
  106608:	e1a03007 	mov	r3, r7
  10660c:	e1a02006 	mov	r2, r6
  106610:	e1a01005 	mov	r1, r5
  106614:	ebfffb0c 	bl	10524c <ada__exceptions__exception_data__set_exception_c_msgXn>
  106618:	e1a00004 	mov	r0, r4
  10661c:	ebffff04 	bl	106234 <ada__exceptions__complete_and_propagate_occurrence>

00106620 <__gnat_raise_with_msg>:
  106620:	e92d4070 	push	{r4, r5, r6, lr}
  106624:	e1a05000 	mov	r5, r0
  106628:	ebfffb84 	bl	105440 <ada__exceptions__exception_propagation__allocate_occurrenceXn>
  10662c:	e1a04000 	mov	r4, r0
  106630:	eb00183a 	bl	10c720 <system__soft_links__get_current_excep_soft>
  106634:	e3a03000 	mov	r3, #0
  106638:	e5c430d4 	strb	r3, [r4, #212]	; 0xd4
  10663c:	e5845000 	str	r5, [r4]
  106640:	e58430dc 	str	r3, [r4, #220]	; 0xdc
  106644:	e30434fc 	movw	r3, #17660	; 0x44fc
  106648:	e3403011 	movt	r3, #17
  10664c:	e5933000 	ldr	r3, [r3]
  106650:	e58430d8 	str	r3, [r4, #216]	; 0xd8
  106654:	e5902008 	ldr	r2, [r0, #8]
  106658:	e5842008 	str	r2, [r4, #8]
  10665c:	e1c22fc2 	bic	r2, r2, r2, asr #31
  106660:	e280100c 	add	r1, r0, #12
  106664:	e284000c 	add	r0, r4, #12
  106668:	fa0026d3 	blx	1101bc <memmove>
  10666c:	e1a00004 	mov	r0, r4
  106670:	ebfffeef 	bl	106234 <ada__exceptions__complete_and_propagate_occurrence>

00106674 <__gnat_rcheck_CE_Access_Check>:
  106674:	e92d4010 	push	{r4, lr}
  106678:	e302355c 	movw	r3, #9564	; 0x255c
  10667c:	e3403011 	movt	r3, #17
  106680:	e3a02000 	mov	r2, #0
  106684:	ebfffed3 	bl	1061d8 <__gnat_raise_constraint_error_msg>

00106688 <__gnat_rcheck_CE_Null_Access_Parameter>:
  106688:	e92d4010 	push	{r4, lr}
  10668c:	e3023570 	movw	r3, #9584	; 0x2570
  106690:	e3403011 	movt	r3, #17
  106694:	e3a02000 	mov	r2, #0
  106698:	ebfffece 	bl	1061d8 <__gnat_raise_constraint_error_msg>

0010669c <__gnat_rcheck_CE_Discriminant_Check>:
  10669c:	e92d4010 	push	{r4, lr}
  1066a0:	e302358c 	movw	r3, #9612	; 0x258c
  1066a4:	e3403011 	movt	r3, #17
  1066a8:	e3a02000 	mov	r2, #0
  1066ac:	ebfffec9 	bl	1061d8 <__gnat_raise_constraint_error_msg>

001066b0 <__gnat_rcheck_CE_Divide_By_Zero>:
  1066b0:	e92d4010 	push	{r4, lr}
  1066b4:	e30235a8 	movw	r3, #9640	; 0x25a8
  1066b8:	e3403011 	movt	r3, #17
  1066bc:	e3a02000 	mov	r2, #0
  1066c0:	ebfffec4 	bl	1061d8 <__gnat_raise_constraint_error_msg>

001066c4 <__gnat_rcheck_CE_Explicit_Raise>:
  1066c4:	e92d4010 	push	{r4, lr}
  1066c8:	e30235b8 	movw	r3, #9656	; 0x25b8
  1066cc:	e3403011 	movt	r3, #17
  1066d0:	e3a02000 	mov	r2, #0
  1066d4:	ebfffebf 	bl	1061d8 <__gnat_raise_constraint_error_msg>

001066d8 <__gnat_rcheck_CE_Index_Check>:
  1066d8:	e92d4010 	push	{r4, lr}
  1066dc:	e30235c8 	movw	r3, #9672	; 0x25c8
  1066e0:	e3403011 	movt	r3, #17
  1066e4:	e3a02000 	mov	r2, #0
  1066e8:	ebfffeba 	bl	1061d8 <__gnat_raise_constraint_error_msg>

001066ec <__gnat_rcheck_CE_Invalid_Data>:
  1066ec:	e92d4010 	push	{r4, lr}
  1066f0:	e30235dc 	movw	r3, #9692	; 0x25dc
  1066f4:	e3403011 	movt	r3, #17
  1066f8:	e3a02000 	mov	r2, #0
  1066fc:	ebfffeb5 	bl	1061d8 <__gnat_raise_constraint_error_msg>

00106700 <__gnat_rcheck_CE_Length_Check>:
  106700:	e92d4010 	push	{r4, lr}
  106704:	e30235ec 	movw	r3, #9708	; 0x25ec
  106708:	e3403011 	movt	r3, #17
  10670c:	e3a02000 	mov	r2, #0
  106710:	ebfffeb0 	bl	1061d8 <__gnat_raise_constraint_error_msg>

00106714 <__gnat_rcheck_CE_Null_Exception_Id>:
  106714:	e92d4010 	push	{r4, lr}
  106718:	e3023600 	movw	r3, #9728	; 0x2600
  10671c:	e3403011 	movt	r3, #17
  106720:	e3a02000 	mov	r2, #0
  106724:	ebfffeab 	bl	1061d8 <__gnat_raise_constraint_error_msg>

00106728 <__gnat_rcheck_CE_Null_Not_Allowed>:
  106728:	e92d4010 	push	{r4, lr}
  10672c:	e3023614 	movw	r3, #9748	; 0x2614
  106730:	e3403011 	movt	r3, #17
  106734:	e3a02000 	mov	r2, #0
  106738:	ebfffea6 	bl	1061d8 <__gnat_raise_constraint_error_msg>

0010673c <__gnat_rcheck_CE_Overflow_Check>:
  10673c:	e92d4010 	push	{r4, lr}
  106740:	e3023630 	movw	r3, #9776	; 0x2630
  106744:	e3403011 	movt	r3, #17
  106748:	e3a02000 	mov	r2, #0
  10674c:	ebfffea1 	bl	1061d8 <__gnat_raise_constraint_error_msg>

00106750 <__gnat_rcheck_CE_Partition_Check>:
  106750:	e92d4010 	push	{r4, lr}
  106754:	e3023648 	movw	r3, #9800	; 0x2648
  106758:	e3403011 	movt	r3, #17
  10675c:	e3a02000 	mov	r2, #0
  106760:	ebfffe9c 	bl	1061d8 <__gnat_raise_constraint_error_msg>

00106764 <__gnat_rcheck_CE_Range_Check>:
  106764:	e92d4010 	push	{r4, lr}
  106768:	e3023660 	movw	r3, #9824	; 0x2660
  10676c:	e3403011 	movt	r3, #17
  106770:	e3a02000 	mov	r2, #0
  106774:	ebfffe97 	bl	1061d8 <__gnat_raise_constraint_error_msg>

00106778 <__gnat_rcheck_CE_Tag_Check>:
  106778:	e92d4010 	push	{r4, lr}
  10677c:	e3023674 	movw	r3, #9844	; 0x2674
  106780:	e3403011 	movt	r3, #17
  106784:	e3a02000 	mov	r2, #0
  106788:	ebfffe92 	bl	1061d8 <__gnat_raise_constraint_error_msg>

0010678c <__gnat_rcheck_PE_Access_Before_Elaboration>:
  10678c:	e92d4010 	push	{r4, lr}
  106790:	e3022688 	movw	r2, #9864	; 0x2688
  106794:	e3402011 	movt	r2, #17
  106798:	ebffff74 	bl	106570 <__gnat_raise_program_error_msg>

0010679c <__gnat_rcheck_PE_Accessibility_Check>:
  10679c:	e92d4010 	push	{r4, lr}
  1067a0:	e30226a4 	movw	r2, #9892	; 0x26a4
  1067a4:	e3402011 	movt	r2, #17
  1067a8:	ebffff70 	bl	106570 <__gnat_raise_program_error_msg>

001067ac <__gnat_rcheck_PE_Address_Of_Intrinsic>:
  1067ac:	e92d4010 	push	{r4, lr}
  1067b0:	e30226c0 	movw	r2, #9920	; 0x26c0
  1067b4:	e3402011 	movt	r2, #17
  1067b8:	ebffff6c 	bl	106570 <__gnat_raise_program_error_msg>

001067bc <__gnat_rcheck_PE_Aliased_Parameters>:
  1067bc:	e92d4010 	push	{r4, lr}
  1067c0:	e30226f0 	movw	r2, #9968	; 0x26f0
  1067c4:	e3402011 	movt	r2, #17
  1067c8:	ebffff68 	bl	106570 <__gnat_raise_program_error_msg>

001067cc <__gnat_rcheck_PE_All_Guards_Closed>:
  1067cc:	e92d4010 	push	{r4, lr}
  1067d0:	e3022704 	movw	r2, #9988	; 0x2704
  1067d4:	e3402011 	movt	r2, #17
  1067d8:	ebffff64 	bl	106570 <__gnat_raise_program_error_msg>

001067dc <__gnat_rcheck_PE_Bad_Predicated_Generic_Type>:
  1067dc:	e92d4010 	push	{r4, lr}
  1067e0:	e3022718 	movw	r2, #10008	; 0x2718
  1067e4:	e3402011 	movt	r2, #17
  1067e8:	ebffff60 	bl	106570 <__gnat_raise_program_error_msg>

001067ec <__gnat_rcheck_PE_Build_In_Place_Mismatch>:
  1067ec:	e92d4010 	push	{r4, lr}
  1067f0:	e3022920 	movw	r2, #10528	; 0x2920
  1067f4:	e3402011 	movt	r2, #17
  1067f8:	ebffff5c 	bl	106570 <__gnat_raise_program_error_msg>

001067fc <__gnat_rcheck_PE_Current_Task_In_Entry_Body>:
  1067fc:	e92d4010 	push	{r4, lr}
  106800:	e3022748 	movw	r2, #10056	; 0x2748
  106804:	e3402011 	movt	r2, #17
  106808:	ebffff58 	bl	106570 <__gnat_raise_program_error_msg>

0010680c <__gnat_rcheck_PE_Duplicated_Entry_Address>:
  10680c:	e92d4010 	push	{r4, lr}
  106810:	e3022770 	movw	r2, #10096	; 0x2770
  106814:	e3402011 	movt	r2, #17
  106818:	ebffff54 	bl	106570 <__gnat_raise_program_error_msg>

0010681c <__gnat_rcheck_PE_Explicit_Raise>:
  10681c:	e92d4010 	push	{r4, lr}
  106820:	e302278c 	movw	r2, #10124	; 0x278c
  106824:	e3402011 	movt	r2, #17
  106828:	ebffff50 	bl	106570 <__gnat_raise_program_error_msg>

0010682c <__gnat_rcheck_PE_Implicit_Return>:
  10682c:	e92d4010 	push	{r4, lr}
  106830:	e30227c0 	movw	r2, #10176	; 0x27c0
  106834:	e3402011 	movt	r2, #17
  106838:	ebffff4c 	bl	106570 <__gnat_raise_program_error_msg>

0010683c <__gnat_rcheck_PE_Misaligned_Address_Value>:
  10683c:	e92d4010 	push	{r4, lr}
  106840:	e30227e0 	movw	r2, #10208	; 0x27e0
  106844:	e3402011 	movt	r2, #17
  106848:	ebffff48 	bl	106570 <__gnat_raise_program_error_msg>

0010684c <__gnat_rcheck_PE_Missing_Return>:
  10684c:	e92d4010 	push	{r4, lr}
  106850:	e30227fc 	movw	r2, #10236	; 0x27fc
  106854:	e3402011 	movt	r2, #17
  106858:	ebffff44 	bl	106570 <__gnat_raise_program_error_msg>

0010685c <__gnat_rcheck_PE_Non_Transportable_Actual>:
  10685c:	e92d4010 	push	{r4, lr}
  106860:	e3022880 	movw	r2, #10368	; 0x2880
  106864:	e3402011 	movt	r2, #17
  106868:	ebffff40 	bl	106570 <__gnat_raise_program_error_msg>

0010686c <__gnat_rcheck_PE_Overlaid_Controlled_Object>:
  10686c:	e92d4010 	push	{r4, lr}
  106870:	e302280c 	movw	r2, #10252	; 0x280c
  106874:	e3402011 	movt	r2, #17
  106878:	ebffff3c 	bl	106570 <__gnat_raise_program_error_msg>

0010687c <__gnat_rcheck_PE_Potentially_Blocking_Operation>:
  10687c:	e92d4010 	push	{r4, lr}
  106880:	e3022828 	movw	r2, #10280	; 0x2828
  106884:	e3402011 	movt	r2, #17
  106888:	ebffff38 	bl	106570 <__gnat_raise_program_error_msg>

0010688c <__gnat_rcheck_PE_Stream_Operation_Not_Allowed>:
  10688c:	e92d4010 	push	{r4, lr}
  106890:	e3022900 	movw	r2, #10496	; 0x2900
  106894:	e3402011 	movt	r2, #17
  106898:	ebffff34 	bl	106570 <__gnat_raise_program_error_msg>

0010689c <__gnat_rcheck_PE_Stubbed_Subprogram_Called>:
  10689c:	e92d4010 	push	{r4, lr}
  1068a0:	e3022848 	movw	r2, #10312	; 0x2848
  1068a4:	e3402011 	movt	r2, #17
  1068a8:	ebffff30 	bl	106570 <__gnat_raise_program_error_msg>

001068ac <__gnat_rcheck_PE_Unchecked_Union_Restriction>:
  1068ac:	e92d4010 	push	{r4, lr}
  1068b0:	e3022864 	movw	r2, #10340	; 0x2864
  1068b4:	e3402011 	movt	r2, #17
  1068b8:	ebffff2c 	bl	106570 <__gnat_raise_program_error_msg>

001068bc <__gnat_rcheck_SE_Empty_Storage_Pool>:
  1068bc:	e92d4010 	push	{r4, lr}
  1068c0:	e30228b4 	movw	r2, #10420	; 0x28b4
  1068c4:	e3402011 	movt	r2, #17
  1068c8:	ebffff3a 	bl	1065b8 <__gnat_raise_storage_error_msg>

001068cc <__gnat_rcheck_SE_Explicit_Raise>:
  1068cc:	e92d4010 	push	{r4, lr}
  1068d0:	e30228c8 	movw	r2, #10440	; 0x28c8
  1068d4:	e3402011 	movt	r2, #17
  1068d8:	ebffff36 	bl	1065b8 <__gnat_raise_storage_error_msg>

001068dc <__gnat_rcheck_SE_Infinite_Recursion>:
  1068dc:	e92d4010 	push	{r4, lr}
  1068e0:	e30228d8 	movw	r2, #10456	; 0x28d8
  1068e4:	e3402011 	movt	r2, #17
  1068e8:	ebffff32 	bl	1065b8 <__gnat_raise_storage_error_msg>

001068ec <__gnat_rcheck_SE_Object_Too_Large>:
  1068ec:	e92d4010 	push	{r4, lr}
  1068f0:	e30228ec 	movw	r2, #10476	; 0x28ec
  1068f4:	e3402011 	movt	r2, #17
  1068f8:	ebffff2e 	bl	1065b8 <__gnat_raise_storage_error_msg>

001068fc <__gnat_rcheck_CE_Access_Check_ext>:
  1068fc:	e92d4010 	push	{r4, lr}
  106900:	e302355c 	movw	r3, #9564	; 0x255c
  106904:	e3403011 	movt	r3, #17
  106908:	ebfffe32 	bl	1061d8 <__gnat_raise_constraint_error_msg>

0010690c <ada__exceptions__rcheck_ce_index_check_ext___finalizer.7309>:
  10690c:	e92d4010 	push	{r4, lr}
  106910:	e59c0000 	ldr	r0, [ip]
  106914:	eb00177b 	bl	10c708 <system__secondary_stack__ss_release>
  106918:	e8bd8010 	pop	{r4, pc}

0010691c <__gnat_rcheck_CE_Index_Check_ext>:
  10691c:	e92d4ff0 	push	{r4, r5, r6, r7, r8, r9, sl, fp, lr}
  106920:	e28db020 	add	fp, sp, #32
  106924:	e24dd02c 	sub	sp, sp, #44	; 0x2c
  106928:	e50b0038 	str	r0, [fp, #-56]	; 0xffffffc8
  10692c:	e50b103c 	str	r1, [fp, #-60]	; 0xffffffc4
  106930:	e50b2040 	str	r2, [fp, #-64]	; 0xffffffc0
  106934:	e1a04003 	mov	r4, r3
  106938:	e28b3004 	add	r3, fp, #4
  10693c:	e50b3028 	str	r3, [fp, #-40]	; 0xffffffd8
  106940:	eb00176c 	bl	10c6f8 <system__secondary_stack__ss_mark>
  106944:	e50b002c 	str	r0, [fp, #-44]	; 0xffffffd4
  106948:	e1a01004 	mov	r1, r4
  10694c:	e24b0034 	sub	r0, fp, #52	; 0x34
  106950:	ebfffde7 	bl	1060f4 <ada__exceptions__image>
  106954:	e51ba034 	ldr	sl, [fp, #-52]	; 0xffffffcc
  106958:	e51b4030 	ldr	r4, [fp, #-48]	; 0xffffffd0
  10695c:	e59b1004 	ldr	r1, [fp, #4]
  106960:	e24b0034 	sub	r0, fp, #52	; 0x34
  106964:	ebfffde2 	bl	1060f4 <ada__exceptions__image>
  106968:	e51b3034 	ldr	r3, [fp, #-52]	; 0xffffffcc
  10696c:	e50b3048 	str	r3, [fp, #-72]	; 0xffffffb8
  106970:	e51b6030 	ldr	r6, [fp, #-48]	; 0xffffffd0
  106974:	e59b1008 	ldr	r1, [fp, #8]
  106978:	e24b0034 	sub	r0, fp, #52	; 0x34
  10697c:	ebfffddc 	bl	1060f4 <ada__exceptions__image>
  106980:	e51b3034 	ldr	r3, [fp, #-52]	; 0xffffffcc
  106984:	e50b3044 	str	r3, [fp, #-68]	; 0xffffffbc
  106988:	e51b3030 	ldr	r3, [fp, #-48]	; 0xffffffd0
  10698c:	e5945004 	ldr	r5, [r4, #4]
  106990:	e5940000 	ldr	r0, [r4]
  106994:	e1550000 	cmp	r5, r0
  106998:	a0455000 	subge	r5, r5, r0
  10699c:	a2855001 	addge	r5, r5, #1
  1069a0:	b3a05000 	movlt	r5, #0
  1069a4:	e2857019 	add	r7, r5, #25
  1069a8:	e2859021 	add	r9, r5, #33	; 0x21
  1069ac:	e5964004 	ldr	r4, [r6, #4]
  1069b0:	e5960000 	ldr	r0, [r6]
  1069b4:	e1540000 	cmp	r4, r0
  1069b8:	a0444000 	subge	r4, r4, r0
  1069bc:	a2844001 	addge	r4, r4, #1
  1069c0:	b3a04000 	movlt	r4, #0
  1069c4:	e0894004 	add	r4, r9, r4
  1069c8:	e2848002 	add	r8, r4, #2
  1069cc:	e5936004 	ldr	r6, [r3, #4]
  1069d0:	e5933000 	ldr	r3, [r3]
  1069d4:	e1560003 	cmp	r6, r3
  1069d8:	a0466003 	subge	r6, r6, r3
  1069dc:	a2866001 	addge	r6, r6, #1
  1069e0:	b3a06000 	movlt	r6, #0
  1069e4:	e0886006 	add	r6, r8, r6
  1069e8:	e2863001 	add	r3, r6, #1
  1069ec:	e1c33fc3 	bic	r3, r3, r3, asr #31
  1069f0:	e2833007 	add	r3, r3, #7
  1069f4:	e3c33007 	bic	r3, r3, #7
  1069f8:	e04dd003 	sub	sp, sp, r3
  1069fc:	e3a02012 	mov	r2, #18
  106a00:	e3021330 	movw	r1, #9008	; 0x2330
  106a04:	e3401011 	movt	r1, #17
  106a08:	e1a0000d 	mov	r0, sp
  106a0c:	fa0025af 	blx	1100d0 <memcpy>
  106a10:	e3a0300a 	mov	r3, #10
  106a14:	e5cd3012 	strb	r3, [sp, #18]
  106a18:	e3a02006 	mov	r2, #6
  106a1c:	e3021344 	movw	r1, #9028	; 0x2344
  106a20:	e3401011 	movt	r1, #17
  106a24:	e28d0013 	add	r0, sp, #19
  106a28:	fa0025a8 	blx	1100d0 <memcpy>
  106a2c:	e3570019 	cmp	r7, #25
  106a30:	a1a02007 	movge	r2, r7
  106a34:	b3a02019 	movlt	r2, #25
  106a38:	e2422019 	sub	r2, r2, #25
  106a3c:	e1a0100a 	mov	r1, sl
  106a40:	e28d0019 	add	r0, sp, #25
  106a44:	fa0025a1 	blx	1100d0 <memcpy>
  106a48:	e08d0005 	add	r0, sp, r5
  106a4c:	e3a02008 	mov	r2, #8
  106a50:	e302134c 	movw	r1, #9036	; 0x234c
  106a54:	e3401011 	movt	r1, #17
  106a58:	e2800019 	add	r0, r0, #25
  106a5c:	fa00259b 	blx	1100d0 <memcpy>
  106a60:	e2850021 	add	r0, r5, #33	; 0x21
  106a64:	e1540009 	cmp	r4, r9
  106a68:	a0692004 	rsbge	r2, r9, r4
  106a6c:	b0692009 	rsblt	r2, r9, r9
  106a70:	e51b1048 	ldr	r1, [fp, #-72]	; 0xffffffb8
  106a74:	e08d0000 	add	r0, sp, r0
  106a78:	fa002594 	blx	1100d0 <memcpy>
  106a7c:	e3a02002 	mov	r2, #2
  106a80:	e3021358 	movw	r1, #9048	; 0x2358
  106a84:	e3401011 	movt	r1, #17
  106a88:	e08d0004 	add	r0, sp, r4
  106a8c:	fa00258f 	blx	1100d0 <memcpy>
  106a90:	e2840002 	add	r0, r4, #2
  106a94:	e1580006 	cmp	r8, r6
  106a98:	a0682008 	rsbge	r2, r8, r8
  106a9c:	b0682006 	rsblt	r2, r8, r6
  106aa0:	e51b1044 	ldr	r1, [fp, #-68]	; 0xffffffbc
  106aa4:	e08d0000 	add	r0, sp, r0
  106aa8:	fa002588 	blx	1100d0 <memcpy>
  106aac:	e3a03000 	mov	r3, #0
  106ab0:	e7cd3006 	strb	r3, [sp, r6]
  106ab4:	e1a0300d 	mov	r3, sp
  106ab8:	e51b2040 	ldr	r2, [fp, #-64]	; 0xffffffc0
  106abc:	e51b103c 	ldr	r1, [fp, #-60]	; 0xffffffc4
  106ac0:	e51b0038 	ldr	r0, [fp, #-56]	; 0xffffffc8
  106ac4:	ebfffdc3 	bl	1061d8 <__gnat_raise_constraint_error_msg>
  106ac8:	e1a04000 	mov	r4, r0
  106acc:	e24bc02c 	sub	ip, fp, #44	; 0x2c
  106ad0:	ebffff8d 	bl	10690c <ada__exceptions__rcheck_ce_index_check_ext___finalizer.7309>
  106ad4:	e1a00004 	mov	r0, r4
  106ad8:	fa002bcb 	blx	111a0c <_Unwind_Resume>

00106adc <ada__exceptions__rcheck_ce_invalid_data_ext___finalizer.7384>:
  106adc:	e92d4010 	push	{r4, lr}
  106ae0:	e59c0000 	ldr	r0, [ip]
  106ae4:	eb001707 	bl	10c708 <system__secondary_stack__ss_release>
  106ae8:	e8bd8010 	pop	{r4, pc}

00106aec <__gnat_rcheck_CE_Invalid_Data_ext>:
  106aec:	e92d4ff0 	push	{r4, r5, r6, r7, r8, r9, sl, fp, lr}
  106af0:	e28db020 	add	fp, sp, #32
  106af4:	e24dd02c 	sub	sp, sp, #44	; 0x2c
  106af8:	e50b0038 	str	r0, [fp, #-56]	; 0xffffffc8
  106afc:	e50b103c 	str	r1, [fp, #-60]	; 0xffffffc4
  106b00:	e50b2040 	str	r2, [fp, #-64]	; 0xffffffc0
  106b04:	e1a04003 	mov	r4, r3
  106b08:	e28b3004 	add	r3, fp, #4
  106b0c:	e50b3028 	str	r3, [fp, #-40]	; 0xffffffd8
  106b10:	eb0016f8 	bl	10c6f8 <system__secondary_stack__ss_mark>
  106b14:	e50b002c 	str	r0, [fp, #-44]	; 0xffffffd4
  106b18:	e1a01004 	mov	r1, r4
  106b1c:	e24b0034 	sub	r0, fp, #52	; 0x34
  106b20:	ebfffd73 	bl	1060f4 <ada__exceptions__image>
  106b24:	e51ba034 	ldr	sl, [fp, #-52]	; 0xffffffcc
  106b28:	e51b4030 	ldr	r4, [fp, #-48]	; 0xffffffd0
  106b2c:	e59b1004 	ldr	r1, [fp, #4]
  106b30:	e24b0034 	sub	r0, fp, #52	; 0x34
  106b34:	ebfffd6e 	bl	1060f4 <ada__exceptions__image>
  106b38:	e51b3034 	ldr	r3, [fp, #-52]	; 0xffffffcc
  106b3c:	e50b3048 	str	r3, [fp, #-72]	; 0xffffffb8
  106b40:	e51b6030 	ldr	r6, [fp, #-48]	; 0xffffffd0
  106b44:	e59b1008 	ldr	r1, [fp, #8]
  106b48:	e24b0034 	sub	r0, fp, #52	; 0x34
  106b4c:	ebfffd68 	bl	1060f4 <ada__exceptions__image>
  106b50:	e51b3034 	ldr	r3, [fp, #-52]	; 0xffffffcc
  106b54:	e50b3044 	str	r3, [fp, #-68]	; 0xffffffbc
  106b58:	e51b3030 	ldr	r3, [fp, #-48]	; 0xffffffd0
  106b5c:	e5945004 	ldr	r5, [r4, #4]
  106b60:	e5940000 	ldr	r0, [r4]
  106b64:	e1550000 	cmp	r5, r0
  106b68:	a0455000 	subge	r5, r5, r0
  106b6c:	a2855001 	addge	r5, r5, #1
  106b70:	b3a05000 	movlt	r5, #0
  106b74:	e2857013 	add	r7, r5, #19
  106b78:	e285901b 	add	r9, r5, #27
  106b7c:	e5964004 	ldr	r4, [r6, #4]
  106b80:	e5960000 	ldr	r0, [r6]
  106b84:	e1540000 	cmp	r4, r0
  106b88:	a0444000 	subge	r4, r4, r0
  106b8c:	a2844001 	addge	r4, r4, #1
  106b90:	b3a04000 	movlt	r4, #0
  106b94:	e0894004 	add	r4, r9, r4
  106b98:	e2848002 	add	r8, r4, #2
  106b9c:	e5936004 	ldr	r6, [r3, #4]
  106ba0:	e5933000 	ldr	r3, [r3]
  106ba4:	e1560003 	cmp	r6, r3
  106ba8:	a0466003 	subge	r6, r6, r3
  106bac:	a2866001 	addge	r6, r6, #1
  106bb0:	b3a06000 	movlt	r6, #0
  106bb4:	e0886006 	add	r6, r8, r6
  106bb8:	e2863001 	add	r3, r6, #1
  106bbc:	e1c33fc3 	bic	r3, r3, r3, asr #31
  106bc0:	e2833007 	add	r3, r3, #7
  106bc4:	e3c33007 	bic	r3, r3, #7
  106bc8:	e04dd003 	sub	sp, sp, r3
  106bcc:	e3a0200c 	mov	r2, #12
  106bd0:	e302135c 	movw	r1, #9052	; 0x235c
  106bd4:	e3401011 	movt	r1, #17
  106bd8:	e1a0000d 	mov	r0, sp
  106bdc:	fa00253b 	blx	1100d0 <memcpy>
  106be0:	e3a0300a 	mov	r3, #10
  106be4:	e5cd300c 	strb	r3, [sp, #12]
  106be8:	e3a02006 	mov	r2, #6
  106bec:	e302136c 	movw	r1, #9068	; 0x236c
  106bf0:	e3401011 	movt	r1, #17
  106bf4:	e28d000d 	add	r0, sp, #13
  106bf8:	fa002534 	blx	1100d0 <memcpy>
  106bfc:	e3570013 	cmp	r7, #19
  106c00:	a1a02007 	movge	r2, r7
  106c04:	b3a02013 	movlt	r2, #19
  106c08:	e2422013 	sub	r2, r2, #19
  106c0c:	e1a0100a 	mov	r1, sl
  106c10:	e28d0013 	add	r0, sp, #19
  106c14:	fa00252d 	blx	1100d0 <memcpy>
  106c18:	e08d0005 	add	r0, sp, r5
  106c1c:	e3a02008 	mov	r2, #8
  106c20:	e302134c 	movw	r1, #9036	; 0x234c
  106c24:	e3401011 	movt	r1, #17
  106c28:	e2800013 	add	r0, r0, #19
  106c2c:	fa002527 	blx	1100d0 <memcpy>
  106c30:	e285001b 	add	r0, r5, #27
  106c34:	e1540009 	cmp	r4, r9
  106c38:	a0692004 	rsbge	r2, r9, r4
  106c3c:	b0692009 	rsblt	r2, r9, r9
  106c40:	e51b1048 	ldr	r1, [fp, #-72]	; 0xffffffb8
  106c44:	e08d0000 	add	r0, sp, r0
  106c48:	fa002520 	blx	1100d0 <memcpy>
  106c4c:	e3a02002 	mov	r2, #2
  106c50:	e3021358 	movw	r1, #9048	; 0x2358
  106c54:	e3401011 	movt	r1, #17
  106c58:	e08d0004 	add	r0, sp, r4
  106c5c:	fa00251b 	blx	1100d0 <memcpy>
  106c60:	e2840002 	add	r0, r4, #2
  106c64:	e1580006 	cmp	r8, r6
  106c68:	a0682008 	rsbge	r2, r8, r8
  106c6c:	b0682006 	rsblt	r2, r8, r6
  106c70:	e51b1044 	ldr	r1, [fp, #-68]	; 0xffffffbc
  106c74:	e08d0000 	add	r0, sp, r0
  106c78:	fa002514 	blx	1100d0 <memcpy>
  106c7c:	e3a03000 	mov	r3, #0
  106c80:	e7cd3006 	strb	r3, [sp, r6]
  106c84:	e1a0300d 	mov	r3, sp
  106c88:	e51b2040 	ldr	r2, [fp, #-64]	; 0xffffffc0
  106c8c:	e51b103c 	ldr	r1, [fp, #-60]	; 0xffffffc4
  106c90:	e51b0038 	ldr	r0, [fp, #-56]	; 0xffffffc8
  106c94:	ebfffd4f 	bl	1061d8 <__gnat_raise_constraint_error_msg>
  106c98:	e1a04000 	mov	r4, r0
  106c9c:	e24bc02c 	sub	ip, fp, #44	; 0x2c
  106ca0:	ebffff8d 	bl	106adc <ada__exceptions__rcheck_ce_invalid_data_ext___finalizer.7384>
  106ca4:	e1a00004 	mov	r0, r4
  106ca8:	fa002b57 	blx	111a0c <_Unwind_Resume>

00106cac <ada__exceptions__rcheck_ce_range_check_ext___finalizer.7459>:
  106cac:	e92d4010 	push	{r4, lr}
  106cb0:	e59c0000 	ldr	r0, [ip]
  106cb4:	eb001693 	bl	10c708 <system__secondary_stack__ss_release>
  106cb8:	e8bd8010 	pop	{r4, pc}

00106cbc <__gnat_rcheck_CE_Range_Check_ext>:
  106cbc:	e92d4ff0 	push	{r4, r5, r6, r7, r8, r9, sl, fp, lr}
  106cc0:	e28db020 	add	fp, sp, #32
  106cc4:	e24dd02c 	sub	sp, sp, #44	; 0x2c
  106cc8:	e50b0038 	str	r0, [fp, #-56]	; 0xffffffc8
  106ccc:	e50b103c 	str	r1, [fp, #-60]	; 0xffffffc4
  106cd0:	e50b2040 	str	r2, [fp, #-64]	; 0xffffffc0
  106cd4:	e1a04003 	mov	r4, r3
  106cd8:	e28b3004 	add	r3, fp, #4
  106cdc:	e50b3028 	str	r3, [fp, #-40]	; 0xffffffd8
  106ce0:	eb001684 	bl	10c6f8 <system__secondary_stack__ss_mark>
  106ce4:	e50b002c 	str	r0, [fp, #-44]	; 0xffffffd4
  106ce8:	e1a01004 	mov	r1, r4
  106cec:	e24b0034 	sub	r0, fp, #52	; 0x34
  106cf0:	ebfffcff 	bl	1060f4 <ada__exceptions__image>
  106cf4:	e51ba034 	ldr	sl, [fp, #-52]	; 0xffffffcc
  106cf8:	e51b4030 	ldr	r4, [fp, #-48]	; 0xffffffd0
  106cfc:	e59b1004 	ldr	r1, [fp, #4]
  106d00:	e24b0034 	sub	r0, fp, #52	; 0x34
  106d04:	ebfffcfa 	bl	1060f4 <ada__exceptions__image>
  106d08:	e51b3034 	ldr	r3, [fp, #-52]	; 0xffffffcc
  106d0c:	e50b3048 	str	r3, [fp, #-72]	; 0xffffffb8
  106d10:	e51b6030 	ldr	r6, [fp, #-48]	; 0xffffffd0
  106d14:	e59b1008 	ldr	r1, [fp, #8]
  106d18:	e24b0034 	sub	r0, fp, #52	; 0x34
  106d1c:	ebfffcf4 	bl	1060f4 <ada__exceptions__image>
  106d20:	e51b3034 	ldr	r3, [fp, #-52]	; 0xffffffcc
  106d24:	e50b3044 	str	r3, [fp, #-68]	; 0xffffffbc
  106d28:	e51b3030 	ldr	r3, [fp, #-48]	; 0xffffffd0
  106d2c:	e5945004 	ldr	r5, [r4, #4]
  106d30:	e5940000 	ldr	r0, [r4]
  106d34:	e1550000 	cmp	r5, r0
  106d38:	a0455000 	subge	r5, r5, r0
  106d3c:	a2855001 	addge	r5, r5, #1
  106d40:	b3a05000 	movlt	r5, #0
  106d44:	e2857019 	add	r7, r5, #25
  106d48:	e2859021 	add	r9, r5, #33	; 0x21
  106d4c:	e5964004 	ldr	r4, [r6, #4]
  106d50:	e5960000 	ldr	r0, [r6]
  106d54:	e1540000 	cmp	r4, r0
  106d58:	a0444000 	subge	r4, r4, r0
  106d5c:	a2844001 	addge	r4, r4, #1
  106d60:	b3a04000 	movlt	r4, #0
  106d64:	e0894004 	add	r4, r9, r4
  106d68:	e2848002 	add	r8, r4, #2
  106d6c:	e5936004 	ldr	r6, [r3, #4]
  106d70:	e5933000 	ldr	r3, [r3]
  106d74:	e1560003 	cmp	r6, r3
  106d78:	a0466003 	subge	r6, r6, r3
  106d7c:	a2866001 	addge	r6, r6, #1
  106d80:	b3a06000 	movlt	r6, #0
  106d84:	e0886006 	add	r6, r8, r6
  106d88:	e2863001 	add	r3, r6, #1
  106d8c:	e1c33fc3 	bic	r3, r3, r3, asr #31
  106d90:	e2833007 	add	r3, r3, #7
  106d94:	e3c33007 	bic	r3, r3, #7
  106d98:	e04dd003 	sub	sp, sp, r3
  106d9c:	e3a02012 	mov	r2, #18
  106da0:	e3021374 	movw	r1, #9076	; 0x2374
  106da4:	e3401011 	movt	r1, #17
  106da8:	e1a0000d 	mov	r0, sp
  106dac:	fa0024c7 	blx	1100d0 <memcpy>
  106db0:	e3a0300a 	mov	r3, #10
  106db4:	e5cd3012 	strb	r3, [sp, #18]
  106db8:	e3a02006 	mov	r2, #6
  106dbc:	e302136c 	movw	r1, #9068	; 0x236c
  106dc0:	e3401011 	movt	r1, #17
  106dc4:	e28d0013 	add	r0, sp, #19
  106dc8:	fa0024c0 	blx	1100d0 <memcpy>
  106dcc:	e3570019 	cmp	r7, #25
  106dd0:	a1a02007 	movge	r2, r7
  106dd4:	b3a02019 	movlt	r2, #25
  106dd8:	e2422019 	sub	r2, r2, #25
  106ddc:	e1a0100a 	mov	r1, sl
  106de0:	e28d0019 	add	r0, sp, #25
  106de4:	fa0024b9 	blx	1100d0 <memcpy>
  106de8:	e08d0005 	add	r0, sp, r5
  106dec:	e3a02008 	mov	r2, #8
  106df0:	e302134c 	movw	r1, #9036	; 0x234c
  106df4:	e3401011 	movt	r1, #17
  106df8:	e2800019 	add	r0, r0, #25
  106dfc:	fa0024b3 	blx	1100d0 <memcpy>
  106e00:	e2850021 	add	r0, r5, #33	; 0x21
  106e04:	e1540009 	cmp	r4, r9
  106e08:	a0692004 	rsbge	r2, r9, r4
  106e0c:	b0692009 	rsblt	r2, r9, r9
  106e10:	e51b1048 	ldr	r1, [fp, #-72]	; 0xffffffb8
  106e14:	e08d0000 	add	r0, sp, r0
  106e18:	fa0024ac 	blx	1100d0 <memcpy>
  106e1c:	e3a02002 	mov	r2, #2
  106e20:	e3021358 	movw	r1, #9048	; 0x2358
  106e24:	e3401011 	movt	r1, #17
  106e28:	e08d0004 	add	r0, sp, r4
  106e2c:	fa0024a7 	blx	1100d0 <memcpy>
  106e30:	e2840002 	add	r0, r4, #2
  106e34:	e1580006 	cmp	r8, r6
  106e38:	a0682008 	rsbge	r2, r8, r8
  106e3c:	b0682006 	rsblt	r2, r8, r6
  106e40:	e51b1044 	ldr	r1, [fp, #-68]	; 0xffffffbc
  106e44:	e08d0000 	add	r0, sp, r0
  106e48:	fa0024a0 	blx	1100d0 <memcpy>
  106e4c:	e3a03000 	mov	r3, #0
  106e50:	e7cd3006 	strb	r3, [sp, r6]
  106e54:	e1a0300d 	mov	r3, sp
  106e58:	e51b2040 	ldr	r2, [fp, #-64]	; 0xffffffc0
  106e5c:	e51b103c 	ldr	r1, [fp, #-60]	; 0xffffffc4
  106e60:	e51b0038 	ldr	r0, [fp, #-56]	; 0xffffffc8
  106e64:	ebfffcdb 	bl	1061d8 <__gnat_raise_constraint_error_msg>
  106e68:	e1a04000 	mov	r4, r0
  106e6c:	e24bc02c 	sub	ip, fp, #44	; 0x2c
  106e70:	ebffff8d 	bl	106cac <ada__exceptions__rcheck_ce_range_check_ext___finalizer.7459>
  106e74:	e1a00004 	mov	r0, r4
  106e78:	fa002ae3 	blx	111a0c <_Unwind_Resume>

00106e7c <__gnat_rcheck_PE_Finalize_Raised_Exception>:
  106e7c:	e92d4070 	push	{r4, r5, r6, lr}
  106e80:	e24dd008 	sub	sp, sp, #8
  106e84:	e1a05000 	mov	r5, r0
  106e88:	e1a06001 	mov	r6, r1
  106e8c:	ebfff96b 	bl	105440 <ada__exceptions__exception_propagation__allocate_occurrenceXn>
  106e90:	e1a04000 	mov	r4, r0
  106e94:	e302379c 	movw	r3, #10140	; 0x279c
  106e98:	e3403011 	movt	r3, #17
  106e9c:	e58d3004 	str	r3, [sp, #4]
  106ea0:	e3a03000 	mov	r3, #0
  106ea4:	e58d3000 	str	r3, [sp]
  106ea8:	e1a03006 	mov	r3, r6
  106eac:	e1a02005 	mov	r2, r5
  106eb0:	e30414c8 	movw	r1, #17608	; 0x44c8
  106eb4:	e3401011 	movt	r1, #17
  106eb8:	ebfff8e3 	bl	10524c <ada__exceptions__exception_data__set_exception_c_msgXn>
  106ebc:	e1a00004 	mov	r0, r4
  106ec0:	ebfffcdb 	bl	106234 <ada__exceptions__complete_and_propagate_occurrence>

00106ec4 <__gnat_reraise>:
  106ec4:	e92d4070 	push	{r4, r5, r6, lr}
  106ec8:	ebfff95c 	bl	105440 <ada__exceptions__exception_propagation__allocate_occurrenceXn>
  106ecc:	e1a04000 	mov	r4, r0
  106ed0:	e5905004 	ldr	r5, [r0, #4]
  106ed4:	eb001611 	bl	10c720 <system__soft_links__get_current_excep_soft>
  106ed8:	e1a01000 	mov	r1, r0
  106edc:	e1a00004 	mov	r0, r4
  106ee0:	eb000034 	bl	106fb8 <ada__exceptions__save_occurrence>
  106ee4:	e5845004 	str	r5, [r4, #4]
  106ee8:	e1a00004 	mov	r0, r4
  106eec:	ebfffcd0 	bl	106234 <ada__exceptions__complete_and_propagate_occurrence>

00106ef0 <__gnat_reraise_library_exception_if_any>:
  106ef0:	e52de004 	push	{lr}		; (str lr, [sp, #-4]!)
  106ef4:	e24ddf6b 	sub	sp, sp, #428	; 0x1ac
  106ef8:	e1a0000d 	mov	r0, sp
  106efc:	ebfff68a 	bl	10492c <ada__exceptions__exception_occurrenceIP>
  106f00:	e304346c 	movw	r3, #17516	; 0x446c
  106f04:	e3403011 	movt	r3, #17
  106f08:	e5d33000 	ldrb	r3, [r3]
  106f0c:	e3530000 	cmp	r3, #0
  106f10:	0a000010 	beq	106f58 <__gnat_reraise_library_exception_if_any+0x68>
  106f14:	e3a02f6a 	mov	r2, #424	; 0x1a8
  106f18:	e30d1818 	movw	r1, #55320	; 0xd818
  106f1c:	e3401011 	movt	r1, #17
  106f20:	e1a0000d 	mov	r0, sp
  106f24:	fa002469 	blx	1100d0 <memcpy>
  106f28:	e59d3000 	ldr	r3, [sp]
  106f2c:	e3530000 	cmp	r3, #0
  106f30:	0a000001 	beq	106f3c <__gnat_reraise_library_exception_if_any+0x4c>
  106f34:	e1a0000d 	mov	r0, sp
  106f38:	ebfffce4 	bl	1062d0 <__gnat_raise_from_controlled_operation>
  106f3c:	e3021388 	movw	r1, #9096	; 0x2388
  106f40:	e3401011 	movt	r1, #17
  106f44:	e3022290 	movw	r2, #8848	; 0x2290
  106f48:	e3402011 	movt	r2, #17
  106f4c:	e30404c8 	movw	r0, #17608	; 0x44c8
  106f50:	e3400011 	movt	r0, #17
  106f54:	ebfffccd 	bl	106290 <ada__exceptions__raise_exception_no_defer>
  106f58:	e28ddf6b 	add	sp, sp, #428	; 0x1ac
  106f5c:	e49df004 	pop	{pc}		; (ldr pc, [sp], #4)

00106f60 <ada__exceptions__reraise_occurrence>:
  106f60:	e5903000 	ldr	r3, [r0]
  106f64:	e3530000 	cmp	r3, #0
  106f68:	1a000000 	bne	106f70 <ada__exceptions__reraise_occurrence+0x10>
  106f6c:	e12fff1e 	bx	lr
  106f70:	e92d4010 	push	{r4, lr}
  106f74:	ebffffff 	bl	106f78 <ada__exceptions__reraise_occurrence_always>

00106f78 <ada__exceptions__reraise_occurrence_always>:
  106f78:	e92d4010 	push	{r4, lr}
  106f7c:	ebffffff 	bl	106f80 <ada__exceptions__reraise_occurrence_no_defer>

00106f80 <ada__exceptions__reraise_occurrence_no_defer>:
  106f80:	e92d4070 	push	{r4, r5, r6, lr}
  106f84:	e1a04000 	mov	r4, r0
  106f88:	e5903004 	ldr	r3, [r0, #4]
  106f8c:	e3530000 	cmp	r3, #0
  106f90:	0a000000 	beq	106f98 <ada__exceptions__reraise_occurrence_no_defer+0x18>
  106f94:	ebfff972 	bl	105564 <ada__exceptions__exception_propagation__propagate_exceptionXn>
  106f98:	ebfff928 	bl	105440 <ada__exceptions__exception_propagation__allocate_occurrenceXn>
  106f9c:	e1a05000 	mov	r5, r0
  106fa0:	e5906004 	ldr	r6, [r0, #4]
  106fa4:	e1a01004 	mov	r1, r4
  106fa8:	eb000002 	bl	106fb8 <ada__exceptions__save_occurrence>
  106fac:	e5856004 	str	r6, [r5, #4]
  106fb0:	e1a00005 	mov	r0, r5
  106fb4:	ebfffc9e 	bl	106234 <ada__exceptions__complete_and_propagate_occurrence>

00106fb8 <ada__exceptions__save_occurrence>:
  106fb8:	e92d4070 	push	{r4, r5, r6, lr}
  106fbc:	e1a04000 	mov	r4, r0
  106fc0:	e1a05001 	mov	r5, r1
  106fc4:	e5913000 	ldr	r3, [r1]
  106fc8:	e5803000 	str	r3, [r0]
  106fcc:	e3a03000 	mov	r3, #0
  106fd0:	e5803004 	str	r3, [r0, #4]
  106fd4:	e5912008 	ldr	r2, [r1, #8]
  106fd8:	e5802008 	str	r2, [r0, #8]
  106fdc:	e59130dc 	ldr	r3, [r1, #220]	; 0xdc
  106fe0:	e58030dc 	str	r3, [r0, #220]	; 0xdc
  106fe4:	e59130d8 	ldr	r3, [r1, #216]	; 0xd8
  106fe8:	e58030d8 	str	r3, [r0, #216]	; 0xd8
  106fec:	e1c22fc2 	bic	r2, r2, r2, asr #31
  106ff0:	e281100c 	add	r1, r1, #12
  106ff4:	e280000c 	add	r0, r0, #12
  106ff8:	fa00246f 	blx	1101bc <memmove>
  106ffc:	e59420dc 	ldr	r2, [r4, #220]	; 0xdc
  107000:	e1c22fc2 	bic	r2, r2, r2, asr #31
  107004:	e1a02102 	lsl	r2, r2, #2
  107008:	e28510e0 	add	r1, r5, #224	; 0xe0
  10700c:	e28400e0 	add	r0, r4, #224	; 0xe0
  107010:	fa002469 	blx	1101bc <memmove>
  107014:	e8bd8070 	pop	{r4, r5, r6, pc}

00107018 <ada__exceptions__save_occurrence__2>:
  107018:	e92d4070 	push	{r4, r5, r6, lr}
  10701c:	e1a05000 	mov	r5, r0
  107020:	e3a00f6a 	mov	r0, #424	; 0x1a8
  107024:	eb00150b 	bl	10c458 <__gnat_malloc>
  107028:	e1a04000 	mov	r4, r0
  10702c:	ebfff63e 	bl	10492c <ada__exceptions__exception_occurrenceIP>
  107030:	e1a01005 	mov	r1, r5
  107034:	e1a00004 	mov	r0, r4
  107038:	ebffffde 	bl	106fb8 <ada__exceptions__save_occurrence>
  10703c:	e1a00004 	mov	r0, r4
  107040:	e8bd8070 	pop	{r4, r5, r6, pc}

00107044 <ada__exceptions__string_to_eid>:
  107044:	e92d4010 	push	{r4, lr}
  107048:	ebfffa2b 	bl	1058fc <ada__exceptions__stream_attributes__string_to_eidXn>
  10704c:	e8bd8010 	pop	{r4, pc}

00107050 <ada__exceptions__string_to_eo>:
  107050:	e92d4010 	push	{r4, lr}
  107054:	e1a04000 	mov	r4, r0
  107058:	ebfffa39 	bl	105944 <ada__exceptions__stream_attributes__string_to_eoXn>
  10705c:	e1a00004 	mov	r0, r4
  107060:	e8bd8010 	pop	{r4, pc}

00107064 <__gnat_to_stderr_char>:
  107064:	e92d4010 	push	{r4, lr}
  107068:	eb0014df 	bl	10c3ec <put_char_stderr>
  10706c:	e8bd8010 	pop	{r4, pc}

00107070 <__gnat_to_stderr>:
  107070:	e92d4070 	push	{r4, r5, r6, lr}
  107074:	e5913000 	ldr	r3, [r1]
  107078:	e5915004 	ldr	r5, [r1, #4]
  10707c:	e1530005 	cmp	r3, r5
  107080:	ca00000b 	bgt	1070b4 <__gnat_to_stderr+0x44>
  107084:	e1a04000 	mov	r4, r0
  107088:	e2800001 	add	r0, r0, #1
  10708c:	e0805005 	add	r5, r0, r5
  107090:	e0455003 	sub	r5, r5, r3
  107094:	ea000001 	b	1070a0 <__gnat_to_stderr+0x30>
  107098:	e1540005 	cmp	r4, r5
  10709c:	0a000004 	beq	1070b4 <__gnat_to_stderr+0x44>
  1070a0:	e4d40001 	ldrb	r0, [r4], #1
  1070a4:	e350000d 	cmp	r0, #13
  1070a8:	0afffffa 	beq	107098 <__gnat_to_stderr+0x28>
  1070ac:	ebffffec 	bl	107064 <__gnat_to_stderr_char>
  1070b0:	eafffff8 	b	107098 <__gnat_to_stderr+0x28>
  1070b4:	e8bd8070 	pop	{r4, r5, r6, pc}

001070b8 <__gnat_transfer_occurrence>:
  1070b8:	e92d4010 	push	{r4, lr}
  1070bc:	ebffffbd 	bl	106fb8 <ada__exceptions__save_occurrence>
  1070c0:	e8bd8010 	pop	{r4, pc}

001070c4 <ada__exceptions__triggered_by_abort>:
  1070c4:	e92d4010 	push	{r4, lr}
  1070c8:	eb001594 	bl	10c720 <system__soft_links__get_current_excep_soft>
  1070cc:	e3500000 	cmp	r0, #0
  1070d0:	03a00000 	moveq	r0, #0
  1070d4:	0a000005 	beq	1070f0 <ada__exceptions__triggered_by_abort+0x2c>
  1070d8:	ebfffb77 	bl	105ebc <ada__exceptions__exception_identity>
  1070dc:	e3043480 	movw	r3, #17536	; 0x4480
  1070e0:	e3403011 	movt	r3, #17
  1070e4:	e1530000 	cmp	r3, r0
  1070e8:	13a00000 	movne	r0, #0
  1070ec:	03a00001 	moveq	r0, #1
  1070f0:	e8bd8010 	pop	{r4, pc}

001070f4 <ada__exceptions__wide_exception_name>:
  1070f4:	e92d4bf0 	push	{r4, r5, r6, r7, r8, r9, fp, lr}
  1070f8:	e28db01c 	add	fp, sp, #28
  1070fc:	e24dd020 	sub	sp, sp, #32
  107100:	e1a06000 	mov	r6, r0
  107104:	e24b0034 	sub	r0, fp, #52	; 0x34
  107108:	ebfffb9b 	bl	105f7c <ada__exceptions__exception_name>
  10710c:	e51b4034 	ldr	r4, [fp, #-52]	; 0xffffffcc
  107110:	e51b3030 	ldr	r3, [fp, #-48]	; 0xffffffd0
  107114:	e5930000 	ldr	r0, [r3]
  107118:	e5931004 	ldr	r1, [r3, #4]
  10711c:	e1510000 	cmp	r1, r0
  107120:	a0412000 	subge	r2, r1, r0
  107124:	a2822001 	addge	r2, r2, #1
  107128:	b3a02000 	movlt	r2, #0
  10712c:	e1c23fc2 	bic	r3, r2, r2, asr #31
  107130:	e1a03083 	lsl	r3, r3, #1
  107134:	e2833008 	add	r3, r3, #8
  107138:	e3c33007 	bic	r3, r3, #7
  10713c:	e04dd003 	sub	sp, sp, r3
  107140:	e28d7008 	add	r7, sp, #8
  107144:	e50b002c 	str	r0, [fp, #-44]	; 0xffffffd4
  107148:	e50b1028 	str	r1, [fp, #-40]	; 0xffffffd8
  10714c:	e3a08001 	mov	r8, #1
  107150:	e50b8024 	str	r8, [fp, #-36]	; 0xffffffdc
  107154:	e50b2020 	str	r2, [fp, #-32]	; 0xffffffe0
  107158:	e3043454 	movw	r3, #17492	; 0x4454
  10715c:	e3403011 	movt	r3, #17
  107160:	e5d30000 	ldrb	r0, [r3]
  107164:	eb001a35 	bl	10da40 <system__wch_con__get_wc_encoding_method>
  107168:	e58d0000 	str	r0, [sp]
  10716c:	e1a02007 	mov	r2, r7
  107170:	e24b3024 	sub	r3, fp, #36	; 0x24
  107174:	e1a00004 	mov	r0, r4
  107178:	e24b102c 	sub	r1, fp, #44	; 0x2c
  10717c:	eb001be8 	bl	10e124 <system__wch_stw__string_to_wide_string>
  107180:	e1a09000 	mov	r9, r0
  107184:	e1c05fc0 	bic	r5, r0, r0, asr #31
  107188:	e1a05815 	lsl	r5, r5, r8
  10718c:	e285000b 	add	r0, r5, #11
  107190:	e3c00003 	bic	r0, r0, #3
  107194:	eb001505 	bl	10c5b0 <system__secondary_stack__ss_allocate>
  107198:	e1a04000 	mov	r4, r0
  10719c:	e5808000 	str	r8, [r0]
  1071a0:	e5809004 	str	r9, [r0, #4]
  1071a4:	e2808008 	add	r8, r0, #8
  1071a8:	e1a02005 	mov	r2, r5
  1071ac:	e1a01007 	mov	r1, r7
  1071b0:	e1a00008 	mov	r0, r8
  1071b4:	fa0023c5 	blx	1100d0 <memcpy>
  1071b8:	e5868000 	str	r8, [r6]
  1071bc:	e5864004 	str	r4, [r6, #4]
  1071c0:	e1a00006 	mov	r0, r6
  1071c4:	e24bd01c 	sub	sp, fp, #28
  1071c8:	e8bd8bf0 	pop	{r4, r5, r6, r7, r8, r9, fp, pc}

001071cc <ada__exceptions__wide_exception_name__2>:
  1071cc:	e92d4bf0 	push	{r4, r5, r6, r7, r8, r9, fp, lr}
  1071d0:	e28db01c 	add	fp, sp, #28
  1071d4:	e24dd020 	sub	sp, sp, #32
  1071d8:	e1a06000 	mov	r6, r0
  1071dc:	e24b0034 	sub	r0, fp, #52	; 0x34
  1071e0:	ebfffb80 	bl	105fe8 <ada__exceptions__exception_name__2>
  1071e4:	e51b4034 	ldr	r4, [fp, #-52]	; 0xffffffcc
  1071e8:	e51b3030 	ldr	r3, [fp, #-48]	; 0xffffffd0
  1071ec:	e5930000 	ldr	r0, [r3]
  1071f0:	e5931004 	ldr	r1, [r3, #4]
  1071f4:	e1510000 	cmp	r1, r0
  1071f8:	a0412000 	subge	r2, r1, r0
  1071fc:	a2822001 	addge	r2, r2, #1
  107200:	b3a02000 	movlt	r2, #0
  107204:	e1c23fc2 	bic	r3, r2, r2, asr #31
  107208:	e1a03083 	lsl	r3, r3, #1
  10720c:	e2833008 	add	r3, r3, #8
  107210:	e3c33007 	bic	r3, r3, #7
  107214:	e04dd003 	sub	sp, sp, r3
  107218:	e28d7008 	add	r7, sp, #8
  10721c:	e50b002c 	str	r0, [fp, #-44]	; 0xffffffd4
  107220:	e50b1028 	str	r1, [fp, #-40]	; 0xffffffd8
  107224:	e3a08001 	mov	r8, #1
  107228:	e50b8024 	str	r8, [fp, #-36]	; 0xffffffdc
  10722c:	e50b2020 	str	r2, [fp, #-32]	; 0xffffffe0
  107230:	e3043454 	movw	r3, #17492	; 0x4454
  107234:	e3403011 	movt	r3, #17
  107238:	e5d30000 	ldrb	r0, [r3]
  10723c:	eb0019ff 	bl	10da40 <system__wch_con__get_wc_encoding_method>
  107240:	e58d0000 	str	r0, [sp]
  107244:	e1a02007 	mov	r2, r7
  107248:	e24b3024 	sub	r3, fp, #36	; 0x24
  10724c:	e1a00004 	mov	r0, r4
  107250:	e24b102c 	sub	r1, fp, #44	; 0x2c
  107254:	eb001bb2 	bl	10e124 <system__wch_stw__string_to_wide_string>
  107258:	e1a09000 	mov	r9, r0
  10725c:	e1c05fc0 	bic	r5, r0, r0, asr #31
  107260:	e1a05815 	lsl	r5, r5, r8
  107264:	e285000b 	add	r0, r5, #11
  107268:	e3c00003 	bic	r0, r0, #3
  10726c:	eb0014cf 	bl	10c5b0 <system__secondary_stack__ss_allocate>
  107270:	e1a04000 	mov	r4, r0
  107274:	e5808000 	str	r8, [r0]
  107278:	e5809004 	str	r9, [r0, #4]
  10727c:	e2808008 	add	r8, r0, #8
  107280:	e1a02005 	mov	r2, r5
  107284:	e1a01007 	mov	r1, r7
  107288:	e1a00008 	mov	r0, r8
  10728c:	fa00238f 	blx	1100d0 <memcpy>
  107290:	e5868000 	str	r8, [r6]
  107294:	e5864004 	str	r4, [r6, #4]
  107298:	e1a00006 	mov	r0, r6
  10729c:	e24bd01c 	sub	sp, fp, #28
  1072a0:	e8bd8bf0 	pop	{r4, r5, r6, r7, r8, r9, fp, pc}

001072a4 <ada__exceptions__wide_wide_exception_name>:
  1072a4:	e92d4bf0 	push	{r4, r5, r6, r7, r8, r9, fp, lr}
  1072a8:	e28db01c 	add	fp, sp, #28
  1072ac:	e24dd020 	sub	sp, sp, #32
  1072b0:	e1a06000 	mov	r6, r0
  1072b4:	e24b0034 	sub	r0, fp, #52	; 0x34
  1072b8:	ebfffb2f 	bl	105f7c <ada__exceptions__exception_name>
  1072bc:	e51b4034 	ldr	r4, [fp, #-52]	; 0xffffffcc
  1072c0:	e51b3030 	ldr	r3, [fp, #-48]	; 0xffffffd0
  1072c4:	e5930000 	ldr	r0, [r3]
  1072c8:	e5931004 	ldr	r1, [r3, #4]
  1072cc:	e1510000 	cmp	r1, r0
  1072d0:	a0412000 	subge	r2, r1, r0
  1072d4:	a2822001 	addge	r2, r2, #1
  1072d8:	b3a02000 	movlt	r2, #0
  1072dc:	e1c23fc2 	bic	r3, r2, r2, asr #31
  1072e0:	e1a03103 	lsl	r3, r3, #2
  1072e4:	e283300a 	add	r3, r3, #10
  1072e8:	e3c33007 	bic	r3, r3, #7
  1072ec:	e04dd003 	sub	sp, sp, r3
  1072f0:	e28d7008 	add	r7, sp, #8
  1072f4:	e50b002c 	str	r0, [fp, #-44]	; 0xffffffd4
  1072f8:	e50b1028 	str	r1, [fp, #-40]	; 0xffffffd8
  1072fc:	e3a08001 	mov	r8, #1
  107300:	e50b8024 	str	r8, [fp, #-36]	; 0xffffffdc
  107304:	e50b2020 	str	r2, [fp, #-32]	; 0xffffffe0
  107308:	e3043454 	movw	r3, #17492	; 0x4454
  10730c:	e3403011 	movt	r3, #17
  107310:	e5d30000 	ldrb	r0, [r3]
  107314:	eb0019c9 	bl	10da40 <system__wch_con__get_wc_encoding_method>
  107318:	e58d0000 	str	r0, [sp]
  10731c:	e1a02007 	mov	r2, r7
  107320:	e24b3024 	sub	r3, fp, #36	; 0x24
  107324:	e1a00004 	mov	r0, r4
  107328:	e24b102c 	sub	r1, fp, #44	; 0x2c
  10732c:	eb001ba4 	bl	10e1c4 <system__wch_stw__string_to_wide_wide_string>
  107330:	e1a09000 	mov	r9, r0
  107334:	e1c05fc0 	bic	r5, r0, r0, asr #31
  107338:	e1a05105 	lsl	r5, r5, #2
  10733c:	e2850008 	add	r0, r5, #8
  107340:	eb00149a 	bl	10c5b0 <system__secondary_stack__ss_allocate>
  107344:	e1a04000 	mov	r4, r0
  107348:	e5808000 	str	r8, [r0]
  10734c:	e5809004 	str	r9, [r0, #4]
  107350:	e2808008 	add	r8, r0, #8
  107354:	e1a02005 	mov	r2, r5
  107358:	e1a01007 	mov	r1, r7
  10735c:	e1a00008 	mov	r0, r8
  107360:	fa00235a 	blx	1100d0 <memcpy>
  107364:	e5868000 	str	r8, [r6]
  107368:	e5864004 	str	r4, [r6, #4]
  10736c:	e1a00006 	mov	r0, r6
  107370:	e24bd01c 	sub	sp, fp, #28
  107374:	e8bd8bf0 	pop	{r4, r5, r6, r7, r8, r9, fp, pc}

00107378 <ada__exceptions__wide_wide_exception_name__2>:
  107378:	e92d4bf0 	push	{r4, r5, r6, r7, r8, r9, fp, lr}
  10737c:	e28db01c 	add	fp, sp, #28
  107380:	e24dd020 	sub	sp, sp, #32
  107384:	e1a06000 	mov	r6, r0
  107388:	e24b0034 	sub	r0, fp, #52	; 0x34
  10738c:	ebfffb15 	bl	105fe8 <ada__exceptions__exception_name__2>
  107390:	e51b4034 	ldr	r4, [fp, #-52]	; 0xffffffcc
  107394:	e51b3030 	ldr	r3, [fp, #-48]	; 0xffffffd0
  107398:	e5930000 	ldr	r0, [r3]
  10739c:	e5931004 	ldr	r1, [r3, #4]
  1073a0:	e1510000 	cmp	r1, r0
  1073a4:	a0412000 	subge	r2, r1, r0
  1073a8:	a2822001 	addge	r2, r2, #1
  1073ac:	b3a02000 	movlt	r2, #0
  1073b0:	e1c23fc2 	bic	r3, r2, r2, asr #31
  1073b4:	e1a03103 	lsl	r3, r3, #2
  1073b8:	e283300a 	add	r3, r3, #10
  1073bc:	e3c33007 	bic	r3, r3, #7
  1073c0:	e04dd003 	sub	sp, sp, r3
  1073c4:	e28d7008 	add	r7, sp, #8
  1073c8:	e50b002c 	str	r0, [fp, #-44]	; 0xffffffd4
  1073cc:	e50b1028 	str	r1, [fp, #-40]	; 0xffffffd8
  1073d0:	e3a08001 	mov	r8, #1
  1073d4:	e50b8024 	str	r8, [fp, #-36]	; 0xffffffdc
  1073d8:	e50b2020 	str	r2, [fp, #-32]	; 0xffffffe0
  1073dc:	e3043454 	movw	r3, #17492	; 0x4454
  1073e0:	e3403011 	movt	r3, #17
  1073e4:	e5d30000 	ldrb	r0, [r3]
  1073e8:	eb001994 	bl	10da40 <system__wch_con__get_wc_encoding_method>
  1073ec:	e58d0000 	str	r0, [sp]
  1073f0:	e1a02007 	mov	r2, r7
  1073f4:	e24b3024 	sub	r3, fp, #36	; 0x24
  1073f8:	e1a00004 	mov	r0, r4
  1073fc:	e24b102c 	sub	r1, fp, #44	; 0x2c
  107400:	eb001b6f 	bl	10e1c4 <system__wch_stw__string_to_wide_wide_string>
  107404:	e1a09000 	mov	r9, r0
  107408:	e1c05fc0 	bic	r5, r0, r0, asr #31
  10740c:	e1a05105 	lsl	r5, r5, #2
  107410:	e2850008 	add	r0, r5, #8
  107414:	eb001465 	bl	10c5b0 <system__secondary_stack__ss_allocate>
  107418:	e1a04000 	mov	r4, r0
  10741c:	e5808000 	str	r8, [r0]
  107420:	e5809004 	str	r9, [r0, #4]
  107424:	e2808008 	add	r8, r0, #8
  107428:	e1a02005 	mov	r2, r5
  10742c:	e1a01007 	mov	r1, r7
  107430:	e1a00008 	mov	r0, r8
  107434:	fa002325 	blx	1100d0 <memcpy>
  107438:	e5868000 	str	r8, [r6]
  10743c:	e5864004 	str	r4, [r6, #4]
  107440:	e1a00006 	mov	r0, r6
  107444:	e24bd01c 	sub	sp, fp, #28
  107448:	e8bd8bf0 	pop	{r4, r5, r6, r7, r8, r9, fp, pc}

0010744c <ada__exceptions__code_address_for_zzz>:
  10744c:	e59f0000 	ldr	r0, [pc]	; 107454 <ada__exceptions__code_address_for_zzz+0x8>
  107450:	e12fff1e 	bx	lr
  107454:	0010744c 	andseq	r7, r0, ip, asr #8

00107458 <ada__real_time__mul_div>:
  107458:	e92d4ff0 	push	{r4, r5, r6, r7, r8, r9, sl, fp, lr}
  10745c:	e24dd014 	sub	sp, sp, #20
  107460:	e1a04fc1 	asr	r4, r1, #31
  107464:	e1a0c002 	mov	ip, r2
  107468:	e1a09fc2 	asr	r9, r2, #31
  10746c:	e0206004 	eor	r6, r0, r4
  107470:	e1a05fc4 	asr	r5, r4, #31
  107474:	e1a08002 	mov	r8, r2
  107478:	e0562004 	subs	r2, r6, r4
  10747c:	e1a0a003 	mov	sl, r3
  107480:	e0246002 	eor	r6, r4, r2
  107484:	e1cd80f8 	strd	r8, [sp, #8]
  107488:	e0566004 	subs	r6, r6, r4
  10748c:	e1a0bfca 	asr	fp, sl, #31
  107490:	e00e0996 	mul	lr, r6, r9
  107494:	e0c57005 	sbc	r7, r5, r5
  107498:	e0902004 	adds	r2, r0, r4
  10749c:	e0898c96 	umull	r8, r9, r6, ip
  1074a0:	e2a13000 	adc	r3, r1, #0
  1074a4:	e3500000 	cmp	r0, #0
  1074a8:	e1a05003 	mov	r5, r3
  1074ac:	e2d13000 	sbcs	r3, r1, #0
  1074b0:	e1a04002 	mov	r4, r2
  1074b4:	e1cd40f0 	strd	r4, [sp]
  1074b8:	e1a00fc5 	asr	r0, r5, #31
  1074bc:	e1a040ca 	asr	r4, sl, #1
  1074c0:	e002009c 	mul	r2, ip, r0
  1074c4:	e59d0004 	ldr	r0, [sp, #4]
  1074c8:	e021e79c 	mla	r1, ip, r7, lr
  1074cc:	b3e0e000 	mvnlt	lr, #0
  1074d0:	e1a07fc4 	asr	r7, r4, #31
  1074d4:	a3a0e001 	movge	lr, #1
  1074d8:	e0819009 	add	r9, r1, r9
  1074dc:	b1a0100e 	movlt	r1, lr
  1074e0:	a3a01000 	movge	r1, #0
  1074e4:	e0030194 	mul	r3, r4, r1
  1074e8:	e59d100c 	ldr	r1, [sp, #12]
  1074ec:	e0854e94 	umull	r4, r5, r4, lr
  1074f0:	e0222190 	mla	r2, r0, r1, r2
  1074f4:	e081009c 	umull	r0, r1, ip, r0
  1074f8:	e02e379e 	mla	lr, lr, r7, r3
  1074fc:	e1cd00f0 	strd	r0, [sp]
  107500:	e0822001 	add	r2, r2, r1
  107504:	e58d2004 	str	r2, [sp, #4]
  107508:	e0942008 	adds	r2, r4, r8
  10750c:	e08e5005 	add	r5, lr, r5
  107510:	e1a04002 	mov	r4, r2
  107514:	e0a53009 	adc	r3, r5, r9
  107518:	e1a00004 	mov	r0, r4
  10751c:	e1a08fc3 	asr	r8, r3, #31
  107520:	e1a05003 	mov	r5, r3
  107524:	e1a0200a 	mov	r2, sl
  107528:	e1a09fc8 	asr	r9, r8, #31
  10752c:	e0900008 	adds	r0, r0, r8
  107530:	e2a51000 	adc	r1, r5, #0
  107534:	e0244008 	eor	r4, r4, r8
  107538:	e1a06001 	mov	r6, r1
  10753c:	e0544008 	subs	r4, r4, r8
  107540:	e1a07fc1 	asr	r7, r1, #31
  107544:	e1a00008 	mov	r0, r8
  107548:	e1a01009 	mov	r1, r9
  10754c:	e1a0300b 	mov	r3, fp
  107550:	e0200004 	eor	r0, r0, r4
  107554:	e3a05000 	mov	r5, #0
  107558:	e0500008 	subs	r0, r0, r8
  10755c:	e3e04000 	mvn	r4, #0
  107560:	e0c11009 	sbc	r1, r1, r9
  107564:	e1a08000 	mov	r8, r0
  107568:	e1a09001 	mov	r9, r1
  10756c:	e1cd00d0 	ldrd	r0, [sp]
  107570:	e0900006 	adds	r0, r0, r6
  107574:	e0a11007 	adc	r1, r1, r7
  107578:	fa0025c1 	blx	110c84 <__aeabi_ldivmod>
  10757c:	e1a06000 	mov	r6, r0
  107580:	e1a07001 	mov	r7, r1
  107584:	e1a01002 	mov	r1, r2
  107588:	e2962102 	adds	r2, r6, #-2147483648	; 0x80000000
  10758c:	e2a73000 	adc	r3, r7, #0
  107590:	e1530005 	cmp	r3, r5
  107594:	01520004 	cmpeq	r2, r4
  107598:	8a00000b 	bhi	1075cc <ada__real_time__mul_div+0x174>
  10759c:	e3a04000 	mov	r4, #0
  1075a0:	e1a0200a 	mov	r2, sl
  1075a4:	e0940008 	adds	r0, r4, r8
  1075a8:	e1a0300b 	mov	r3, fp
  1075ac:	e0a11009 	adc	r1, r1, r9
  1075b0:	fa0025b3 	blx	110c84 <__aeabi_ldivmod>
  1075b4:	e0904004 	adds	r4, r0, r4
  1075b8:	e0a15006 	adc	r5, r1, r6
  1075bc:	e1a00004 	mov	r0, r4
  1075c0:	e1a01005 	mov	r1, r5
  1075c4:	e28dd014 	add	sp, sp, #20
  1075c8:	e8bd8ff0 	pop	{r4, r5, r6, r7, r8, r9, sl, fp, pc}
  1075cc:	e30209b0 	movw	r0, #10672	; 0x29b0
  1075d0:	e3a01f75 	mov	r1, #468	; 0x1d4
  1075d4:	e3400011 	movt	r0, #17
  1075d8:	ebfffc39 	bl	1066c4 <__gnat_rcheck_CE_Explicit_Raise>

001075dc <ada__real_time__Oadd__2>:
  1075dc:	e92d0030 	push	{r4, r5}
  1075e0:	e1a04002 	mov	r4, r2
  1075e4:	e1a05003 	mov	r5, r3
  1075e8:	e1a02000 	mov	r2, r0
  1075ec:	e1a03001 	mov	r3, r1
  1075f0:	e1a00004 	mov	r0, r4
  1075f4:	e1a01005 	mov	r1, r5
  1075f8:	e8bd0030 	pop	{r4, r5}
  1075fc:	ea00003b 	b	1076f0 <ada__real_time__Oadd>

00107600 <ada__real_time__Omultiply>:
  107600:	e92d4f70 	push	{r4, r5, r6, r8, r9, sl, fp, lr}
  107604:	e24dd008 	sub	sp, sp, #8
  107608:	e3500001 	cmp	r0, #1
  10760c:	e2d13000 	sbcs	r3, r1, #0
  107610:	e1a04000 	mov	r4, r0
  107614:	e1a05001 	mov	r5, r1
  107618:	e1a06002 	mov	r6, r2
  10761c:	a1a03fa2 	lsrge	r3, r2, #31
  107620:	aa000003 	bge	107634 <ada__real_time__Omultiply+0x34>
  107624:	e3520000 	cmp	r2, #0
  107628:	d3a03000 	movle	r3, #0
  10762c:	c3a03001 	movgt	r3, #1
  107630:	e0033fa1 	and	r3, r3, r1, lsr #31
  107634:	e3530000 	cmp	r3, #0
  107638:	03e00000 	mvneq	r0, #0
  10763c:	03e01102 	mvneq	r1, #-2147483648	; 0x80000000
  107640:	13a00000 	movne	r0, #0
  107644:	13a01102 	movne	r1, #-2147483648	; 0x80000000
  107648:	e3550102 	cmp	r5, #-2147483648	; 0x80000000
  10764c:	03540000 	cmpeq	r4, #0
  107650:	0a000019 	beq	1076bc <ada__real_time__Omultiply+0xbc>
  107654:	e1a02fc5 	asr	r2, r5, #31
  107658:	e0228004 	eor	r8, r2, r4
  10765c:	e0229005 	eor	r9, r2, r5
  107660:	e0588002 	subs	r8, r8, r2
  107664:	e0c99002 	sbc	r9, r9, r2
  107668:	e1cd80f0 	strd	r8, [sp]
  10766c:	e1a09fc6 	asr	r9, r6, #31
  107670:	e1a08006 	mov	r8, r6
  107674:	e1983009 	orrs	r3, r8, r9
  107678:	0a000009 	beq	1076a4 <ada__real_time__Omultiply+0xa4>
  10767c:	e1a0afc9 	asr	sl, r9, #31
  107680:	e02a2006 	eor	r2, sl, r6
  107684:	e02a3009 	eor	r3, sl, r9
  107688:	e052200a 	subs	r2, r2, sl
  10768c:	e0c3300a 	sbc	r3, r3, sl
  107690:	fa0025a3 	blx	110d24 <__aeabi_uldivmod>
  107694:	e1cd20d0 	ldrd	r2, [sp]
  107698:	e1530001 	cmp	r3, r1
  10769c:	01520000 	cmpeq	r2, r0
  1076a0:	8a000007 	bhi	1076c4 <ada__real_time__Omultiply+0xc4>
  1076a4:	e0030596 	mul	r3, r6, r5
  1076a8:	e0810496 	umull	r0, r1, r6, r4
  1076ac:	e0243994 	mla	r4, r4, r9, r3
  1076b0:	e0841001 	add	r1, r4, r1
  1076b4:	e28dd008 	add	sp, sp, #8
  1076b8:	e8bd8f70 	pop	{r4, r5, r6, r8, r9, sl, fp, pc}
  1076bc:	e1cd40f0 	strd	r4, [sp]
  1076c0:	eaffffe9 	b	10766c <ada__real_time__Omultiply+0x6c>
  1076c4:	e30209b0 	movw	r0, #10672	; 0x29b0
  1076c8:	e3a010ac 	mov	r1, #172	; 0xac
  1076cc:	e3400011 	movt	r0, #17
  1076d0:	ebfffbfb 	bl	1066c4 <__gnat_rcheck_CE_Explicit_Raise>

001076d4 <ada__real_time__Omultiply__2>:
  1076d4:	e92d0030 	push	{r4, r5}
  1076d8:	e1a04002 	mov	r4, r2
  1076dc:	e1a01003 	mov	r1, r3
  1076e0:	e1a02000 	mov	r2, r0
  1076e4:	e1a00004 	mov	r0, r4
  1076e8:	e8bd0030 	pop	{r4, r5}
  1076ec:	eaffffc3 	b	107600 <ada__real_time__Omultiply>

001076f0 <ada__real_time__Oadd>:
  1076f0:	e92d41f0 	push	{r4, r5, r6, r7, r8, lr}
  1076f4:	e3520000 	cmp	r2, #0
  1076f8:	e1a07001 	mov	r7, r1
  1076fc:	e2d31000 	sbcs	r1, r3, #0
  107700:	e1a06000 	mov	r6, r0
  107704:	ba00000f 	blt	107748 <ada__real_time__Oadd+0x58>
  107708:	e1e05007 	mvn	r5, r7
  10770c:	e1e04000 	mvn	r4, r0
  107710:	e1550003 	cmp	r5, r3
  107714:	01540002 	cmpeq	r4, r2
  107718:	2a000007 	bcs	10773c <ada__real_time__Oadd+0x4c>
  10771c:	e3530102 	cmp	r3, #-2147483648	; 0x80000000
  107720:	03520001 	cmpeq	r2, #1
  107724:	3a000010 	bcc	10776c <ada__real_time__Oadd+0x7c>
  107728:	e2724000 	rsbs	r4, r2, #0
  10772c:	e2e35000 	rsc	r5, r3, #0
  107730:	e1550007 	cmp	r5, r7
  107734:	01540006 	cmpeq	r4, r6
  107738:	8a00000b 	bhi	10776c <ada__real_time__Oadd+0x7c>
  10773c:	e0960002 	adds	r0, r6, r2
  107740:	e0a71003 	adc	r1, r7, r3
  107744:	e8bd81f0 	pop	{r4, r5, r6, r7, r8, pc}
  107748:	e3530102 	cmp	r3, #-2147483648	; 0x80000000
  10774c:	03520000 	cmpeq	r2, #0
  107750:	13a0c000 	movne	ip, #0
  107754:	01a0cfa7 	lsreq	ip, r7, #31
  107758:	e35c0000 	cmp	ip, #0
  10775c:	0affffee 	beq	10771c <ada__real_time__Oadd+0x2c>
  107760:	e2900000 	adds	r0, r0, #0
  107764:	e2a71102 	adc	r1, r7, #-2147483648	; 0x80000000
  107768:	e8bd81f0 	pop	{r4, r5, r6, r7, r8, pc}
  10776c:	e30209b0 	movw	r0, #10672	; 0x29b0
  107770:	e3a010d4 	mov	r1, #212	; 0xd4
  107774:	e3400011 	movt	r0, #17
  107778:	ebfffbd1 	bl	1066c4 <__gnat_rcheck_CE_Explicit_Raise>

0010777c <ada__real_time__Oadd__3>:
  10777c:	e92d4070 	push	{r4, r5, r6, lr}
  107780:	e0904002 	adds	r4, r0, r2
  107784:	e0b15003 	adcs	r5, r1, r3
  107788:	e1a00004 	mov	r0, r4
  10778c:	e1a01005 	mov	r1, r5
  107790:	63a04001 	movvs	r4, #1
  107794:	73a04000 	movvc	r4, #0
  107798:	e3a05000 	mov	r5, #0
  10779c:	e1943005 	orrs	r3, r4, r5
  1077a0:	1a000000 	bne	1077a8 <ada__real_time__Oadd__3+0x2c>
  1077a4:	e8bd8070 	pop	{r4, r5, r6, pc}
  1077a8:	e30209b0 	movw	r0, #10672	; 0x29b0
  1077ac:	e3a010db 	mov	r1, #219	; 0xdb
  1077b0:	e3400011 	movt	r0, #17
  1077b4:	ebfffbe0 	bl	10673c <__gnat_rcheck_CE_Overflow_Check>

001077b8 <ada__real_time__Osubtract>:
  1077b8:	e92d47f0 	push	{r4, r5, r6, r7, r8, r9, sl, lr}
  1077bc:	e1530001 	cmp	r3, r1
  1077c0:	e1a08000 	mov	r8, r0
  1077c4:	01520000 	cmpeq	r2, r0
  1077c8:	e1a09001 	mov	r9, r1
  1077cc:	93a0c001 	movls	ip, #1
  1077d0:	83a0c000 	movhi	ip, #0
  1077d4:	e3530000 	cmp	r3, #0
  1077d8:	b3a0c000 	movlt	ip, #0
  1077dc:	a20cc001 	andge	ip, ip, #1
  1077e0:	e35c0000 	cmp	ip, #0
  1077e4:	1a000012 	bne	107834 <ada__real_time__Osubtract+0x7c>
  1077e8:	e3530102 	cmp	r3, #-2147483648	; 0x80000000
  1077ec:	03520000 	cmpeq	r2, #0
  1077f0:	03a0c001 	moveq	ip, #1
  1077f4:	13a0c000 	movne	ip, #0
  1077f8:	e3510000 	cmp	r1, #0
  1077fc:	b3a0c000 	movlt	ip, #0
  107800:	a20cc001 	andge	ip, ip, #1
  107804:	e35c0000 	cmp	ip, #0
  107808:	1a00000c 	bne	107840 <ada__real_time__Osubtract+0x88>
  10780c:	e3530102 	cmp	r3, #-2147483648	; 0x80000000
  107810:	03520001 	cmpeq	r2, #1
  107814:	3a00000c 	bcc	10784c <ada__real_time__Osubtract+0x94>
  107818:	e2726000 	rsbs	r6, r2, #0
  10781c:	e1e05001 	mvn	r5, r1
  107820:	e2e37000 	rsc	r7, r3, #0
  107824:	e1e04000 	mvn	r4, r0
  107828:	e1550007 	cmp	r5, r7
  10782c:	01540006 	cmpeq	r4, r6
  107830:	3a000005 	bcc	10784c <ada__real_time__Osubtract+0x94>
  107834:	e0580002 	subs	r0, r8, r2
  107838:	e0c91003 	sbc	r1, r9, r3
  10783c:	e8bd87f0 	pop	{r4, r5, r6, r7, r8, r9, sl, pc}
  107840:	e2900000 	adds	r0, r0, #0
  107844:	e2a11102 	adc	r1, r1, #-2147483648	; 0x80000000
  107848:	e8bd87f0 	pop	{r4, r5, r6, r7, r8, r9, sl, pc}
  10784c:	e30209b0 	movw	r0, #10672	; 0x29b0
  107850:	e3a010fb 	mov	r1, #251	; 0xfb
  107854:	e3400011 	movt	r0, #17
  107858:	ebfffb99 	bl	1066c4 <__gnat_rcheck_CE_Explicit_Raise>

0010785c <ada__real_time__Osubtract__2>:
  10785c:	e92d4070 	push	{r4, r5, r6, lr}
  107860:	e1510003 	cmp	r1, r3
  107864:	e1a04000 	mov	r4, r0
  107868:	01500002 	cmpeq	r0, r2
  10786c:	e1a05001 	mov	r5, r1
  107870:	3a000005 	bcc	10788c <ada__real_time__Osubtract__2+0x30>
  107874:	e0500002 	subs	r0, r0, r2
  107878:	e0c11003 	sbc	r1, r1, r3
  10787c:	e3500000 	cmp	r0, #0
  107880:	e2d13000 	sbcs	r3, r1, #0
  107884:	ba000008 	blt	1078ac <ada__real_time__Osubtract__2+0x50>
  107888:	e8bd8070 	pop	{r4, r5, r6, pc}
  10788c:	e0522000 	subs	r2, r2, r0
  107890:	e0c33001 	sbc	r3, r3, r1
  107894:	e3530102 	cmp	r3, #-2147483648	; 0x80000000
  107898:	03520000 	cmpeq	r2, #0
  10789c:	8a000002 	bhi	1078ac <ada__real_time__Osubtract__2+0x50>
  1078a0:	e2720000 	rsbs	r0, r2, #0
  1078a4:	e2e31000 	rsc	r1, r3, #0
  1078a8:	e8bd8070 	pop	{r4, r5, r6, pc}
  1078ac:	e30209b0 	movw	r0, #10672	; 0x29b0
  1078b0:	e3001111 	movw	r1, #273	; 0x111
  1078b4:	e3400011 	movt	r0, #17
  1078b8:	ebfffb81 	bl	1066c4 <__gnat_rcheck_CE_Explicit_Raise>

001078bc <ada__real_time__Osubtract__3>:
  1078bc:	e92d4070 	push	{r4, r5, r6, lr}
  1078c0:	e0504002 	subs	r4, r0, r2
  1078c4:	e0d15003 	sbcs	r5, r1, r3
  1078c8:	e1a00004 	mov	r0, r4
  1078cc:	e1a01005 	mov	r1, r5
  1078d0:	63a04001 	movvs	r4, #1
  1078d4:	73a04000 	movvc	r4, #0
  1078d8:	e3a05000 	mov	r5, #0
  1078dc:	e1943005 	orrs	r3, r4, r5
  1078e0:	1a000000 	bne	1078e8 <ada__real_time__Osubtract__3+0x2c>
  1078e4:	e8bd8070 	pop	{r4, r5, r6, pc}
  1078e8:	e30209b0 	movw	r0, #10672	; 0x29b0
  1078ec:	e3a01f46 	mov	r1, #280	; 0x118
  1078f0:	e3400011 	movt	r0, #17
  1078f4:	ebfffb90 	bl	10673c <__gnat_rcheck_CE_Overflow_Check>

001078f8 <ada__real_time__Osubtract__4>:
  1078f8:	e3510102 	cmp	r1, #-2147483648	; 0x80000000
  1078fc:	03500000 	cmpeq	r0, #0
  107900:	0a000002 	beq	107910 <ada__real_time__Osubtract__4+0x18>
  107904:	e2700000 	rsbs	r0, r0, #0
  107908:	e2e11000 	rsc	r1, r1, #0
  10790c:	e12fff1e 	bx	lr
  107910:	e92d4010 	push	{r4, lr}
  107914:	e30209b0 	movw	r0, #10672	; 0x29b0
  107918:	e300111e 	movw	r1, #286	; 0x11e
  10791c:	e3400011 	movt	r0, #17
  107920:	ebfffb85 	bl	10673c <__gnat_rcheck_CE_Overflow_Check>

00107924 <ada__real_time__Odivide>:
  107924:	e92d41f0 	push	{r4, r5, r6, r7, r8, lr}
  107928:	e1a04002 	mov	r4, r2
  10792c:	e1a05003 	mov	r5, r3
  107930:	e194c005 	orrs	ip, r4, r5
  107934:	0a000018 	beq	10799c <ada__real_time__Odivide+0x78>
  107938:	e3510102 	cmp	r1, #-2147483648	; 0x80000000
  10793c:	e0044003 	and	r4, r4, r3
  107940:	03500000 	cmpeq	r0, #0
  107944:	e1a06000 	mov	r6, r0
  107948:	03a0c001 	moveq	ip, #1
  10794c:	13a0c000 	movne	ip, #0
  107950:	e3740001 	cmn	r4, #1
  107954:	e1a07001 	mov	r7, r1
  107958:	13a04000 	movne	r4, #0
  10795c:	03a04001 	moveq	r4, #1
  107960:	e11c0004 	tst	ip, r4
  107964:	1a000008 	bne	10798c <ada__real_time__Odivide+0x68>
  107968:	fa0024c5 	blx	110c84 <__aeabi_ldivmod>
  10796c:	e2904102 	adds	r4, r0, #-2147483648	; 0x80000000
  107970:	e3a03000 	mov	r3, #0
  107974:	e2a15000 	adc	r5, r1, #0
  107978:	e3e02000 	mvn	r2, #0
  10797c:	e1550003 	cmp	r5, r3
  107980:	01540002 	cmpeq	r4, r2
  107984:	8a000000 	bhi	10798c <ada__real_time__Odivide+0x68>
  107988:	e8bd81f0 	pop	{r4, r5, r6, r7, r8, pc}
  10798c:	e30209b0 	movw	r0, #10672	; 0x29b0
  107990:	e3001129 	movw	r1, #297	; 0x129
  107994:	e3400011 	movt	r0, #17
  107998:	ebfffb67 	bl	10673c <__gnat_rcheck_CE_Overflow_Check>
  10799c:	e30209b0 	movw	r0, #10672	; 0x29b0
  1079a0:	e3001129 	movw	r1, #297	; 0x129
  1079a4:	e3400011 	movt	r0, #17
  1079a8:	ebfffb40 	bl	1066b0 <__gnat_rcheck_CE_Divide_By_Zero>

001079ac <ada__real_time__Odivide__2>:
  1079ac:	e92d41f0 	push	{r4, r5, r6, r7, r8, lr}
  1079b0:	e3520000 	cmp	r2, #0
  1079b4:	0a000011 	beq	107a00 <ada__real_time__Odivide__2+0x54>
  1079b8:	e1a05fc2 	asr	r5, r2, #31
  1079bc:	e3510102 	cmp	r1, #-2147483648	; 0x80000000
  1079c0:	03500000 	cmpeq	r0, #0
  1079c4:	e0023005 	and	r3, r2, r5
  1079c8:	e1a04002 	mov	r4, r2
  1079cc:	03a02001 	moveq	r2, #1
  1079d0:	13a02000 	movne	r2, #0
  1079d4:	e3730001 	cmn	r3, #1
  1079d8:	e1a06000 	mov	r6, r0
  1079dc:	13a03000 	movne	r3, #0
  1079e0:	03a03001 	moveq	r3, #1
  1079e4:	e1120003 	tst	r2, r3
  1079e8:	e1a07001 	mov	r7, r1
  1079ec:	1a000007 	bne	107a10 <ada__real_time__Odivide__2+0x64>
  1079f0:	e1a02004 	mov	r2, r4
  1079f4:	e1a03005 	mov	r3, r5
  1079f8:	fa0024a1 	blx	110c84 <__aeabi_ldivmod>
  1079fc:	e8bd81f0 	pop	{r4, r5, r6, r7, r8, pc}
  107a00:	e30209b0 	movw	r0, #10672	; 0x29b0
  107a04:	e3a01e13 	mov	r1, #304	; 0x130
  107a08:	e3400011 	movt	r0, #17
  107a0c:	ebfffb27 	bl	1066b0 <__gnat_rcheck_CE_Divide_By_Zero>
  107a10:	e30209b0 	movw	r0, #10672	; 0x29b0
  107a14:	e3a01e13 	mov	r1, #304	; 0x130
  107a18:	e3400011 	movt	r0, #17
  107a1c:	ebfffb46 	bl	10673c <__gnat_rcheck_CE_Overflow_Check>

00107a20 <ada__real_time__clock>:
  107a20:	ea0008ad 	b	109cdc <system__bb__board_support__time__read_clock>
  107a24:	00000000 	andeq	r0, r0, r0

00107a28 <ada__real_time__microseconds>:
  107a28:	e92d4070 	push	{r4, r5, r6, lr}
  107a2c:	e3a03db5 	mov	r3, #11584	; 0x2d40
  107a30:	e34133d9 	movt	r3, #5081	; 0x13d9
  107a34:	e0c54390 	smull	r4, r5, r0, r3
  107a38:	e3540000 	cmp	r4, #0
  107a3c:	e2d53000 	sbcs	r3, r5, #0
  107a40:	ba000009 	blt	107a6c <ada__real_time__microseconds+0x44>
  107a44:	e30a2120 	movw	r2, #41248	; 0xa120
  107a48:	e3a03000 	mov	r3, #0
  107a4c:	e3402007 	movt	r2, #7
  107a50:	e0940002 	adds	r0, r4, r2
  107a54:	e0a51003 	adc	r1, r5, r3
  107a58:	e3042240 	movw	r2, #16960	; 0x4240
  107a5c:	e3a03000 	mov	r3, #0
  107a60:	e340200f 	movt	r2, #15
  107a64:	fa002486 	blx	110c84 <__aeabi_ldivmod>
  107a68:	e8bd8070 	pop	{r4, r5, r6, pc}
  107a6c:	e28f300c 	add	r3, pc, #12
  107a70:	e1c320d0 	ldrd	r2, [r3]
  107a74:	e0940002 	adds	r0, r4, r2
  107a78:	e0a51003 	adc	r1, r5, r3
  107a7c:	eafffff5 	b	107a58 <ada__real_time__microseconds+0x30>
  107a80:	fff85ee0 			; <UNDEFINED> instruction: 0xfff85ee0
  107a84:	ffffffff 			; <UNDEFINED> instruction: 0xffffffff

00107a88 <ada__real_time__milliseconds>:
  107a88:	e92d4070 	push	{r4, r5, r6, lr}
  107a8c:	e3a03db5 	mov	r3, #11584	; 0x2d40
  107a90:	e34133d9 	movt	r3, #5081	; 0x13d9
  107a94:	e0c54390 	smull	r4, r5, r0, r3
  107a98:	e3540000 	cmp	r4, #0
  107a9c:	e2d53000 	sbcs	r3, r5, #0
  107aa0:	ba000005 	blt	107abc <ada__real_time__milliseconds+0x34>
  107aa4:	e2940f7d 	adds	r0, r4, #500	; 0x1f4
  107aa8:	e2a51000 	adc	r1, r5, #0
  107aac:	e3a02ffa 	mov	r2, #1000	; 0x3e8
  107ab0:	e3a03000 	mov	r3, #0
  107ab4:	fa002472 	blx	110c84 <__aeabi_ldivmod>
  107ab8:	e8bd8070 	pop	{r4, r5, r6, pc}
  107abc:	e2540f7d 	subs	r0, r4, #500	; 0x1f4
  107ac0:	e2c51000 	sbc	r1, r5, #0
  107ac4:	eafffff8 	b	107aac <ada__real_time__milliseconds+0x24>

00107ac8 <ada__real_time__minutes>:
  107ac8:	e92d41f0 	push	{r4, r5, r6, r7, r8, lr}
  107acc:	e3a0203c 	mov	r2, #60	; 0x3c
  107ad0:	e28f5048 	add	r5, pc, #72	; 0x48
  107ad4:	e1c540d0 	ldrd	r4, [r5]
  107ad8:	e0c32290 	smull	r2, r3, r0, r2
  107adc:	e28f1044 	add	r1, pc, #68	; 0x44
  107ae0:	e1c100d0 	ldrd	r0, [r1]
  107ae4:	e0946002 	adds	r6, r4, r2
  107ae8:	e0a57003 	adc	r7, r5, r3
  107aec:	e1570001 	cmp	r7, r1
  107af0:	01560000 	cmpeq	r6, r0
  107af4:	8a000004 	bhi	107b0c <ada__real_time__minutes+0x44>
  107af8:	e3a0cdb5 	mov	ip, #11584	; 0x2d40
  107afc:	e341c3d9 	movt	ip, #5081	; 0x13d9
  107b00:	e0810c92 	umull	r0, r1, r2, ip
  107b04:	e021139c 	mla	r1, ip, r3, r1
  107b08:	e8bd81f0 	pop	{r4, r5, r6, r7, r8, pc}
  107b0c:	e30209b0 	movw	r0, #10672	; 0x29b0
  107b10:	e3001163 	movw	r1, #355	; 0x163
  107b14:	e3400011 	movt	r0, #17
  107b18:	ebfffae9 	bl	1066c4 <__gnat_rcheck_CE_Explicit_Raise>
  107b1c:	e320f000 	nop	{0}
  107b20:	72eb19a4 	rscvc	r1, fp, #164, 18	; 0x290000
  107b24:	00000006 	andeq	r0, r0, r6
  107b28:	e5d63348 	ldrb	r3, [r6, #840]	; 0x348
  107b2c:	0000000c 	andeq	r0, r0, ip

00107b30 <ada__real_time__nanoseconds>:
  107b30:	e92d4070 	push	{r4, r5, r6, lr}
  107b34:	e3a03db5 	mov	r3, #11584	; 0x2d40
  107b38:	e34133d9 	movt	r3, #5081	; 0x13d9
  107b3c:	e0c54390 	smull	r4, r5, r0, r3
  107b40:	e3540000 	cmp	r4, #0
  107b44:	e2d53000 	sbcs	r3, r5, #0
  107b48:	ba000007 	blt	107b6c <ada__real_time__nanoseconds+0x3c>
  107b4c:	e28f302c 	add	r3, pc, #44	; 0x2c
  107b50:	e1c320d0 	ldrd	r2, [r3]
  107b54:	e0940002 	adds	r0, r4, r2
  107b58:	e0a51003 	adc	r1, r5, r3
  107b5c:	e28f3024 	add	r3, pc, #36	; 0x24
  107b60:	e1c320d0 	ldrd	r2, [r3]
  107b64:	fa002446 	blx	110c84 <__aeabi_ldivmod>
  107b68:	e8bd8070 	pop	{r4, r5, r6, pc}
  107b6c:	e28f301c 	add	r3, pc, #28
  107b70:	e1c320d0 	ldrd	r2, [r3]
  107b74:	e0940002 	adds	r0, r4, r2
  107b78:	e0a51003 	adc	r1, r5, r3
  107b7c:	eafffff6 	b	107b5c <ada__real_time__nanoseconds+0x2c>
  107b80:	1dcd6500 	cfstr64ne	mvdx6, [sp]
  107b84:	00000000 	andeq	r0, r0, r0
  107b88:	3b9aca00 	blcc	fe7ba390 <__heap_end+0xbe8ba390>
  107b8c:	00000000 	andeq	r0, r0, r0
  107b90:	e2329b00 	eors	r9, r2, #0, 22
  107b94:	ffffffff 			; <UNDEFINED> instruction: 0xffffffff

00107b98 <ada__real_time__rounded_div>:
  107b98:	e92d41f0 	push	{r4, r5, r6, r7, r8, lr}
  107b9c:	e3500000 	cmp	r0, #0
  107ba0:	e1a07001 	mov	r7, r1
  107ba4:	e2d11000 	sbcs	r1, r1, #0
  107ba8:	e1a06000 	mov	r6, r0
  107bac:	e1a0cfa3 	lsr	ip, r3, #31
  107bb0:	ba000007 	blt	107bd4 <ada__real_time__rounded_div+0x3c>
  107bb4:	e092400c 	adds	r4, r2, ip
  107bb8:	e2a35000 	adc	r5, r3, #0
  107bbc:	e1b050c5 	asrs	r5, r5, #1
  107bc0:	e1a04064 	rrx	r4, r4
  107bc4:	e0900004 	adds	r0, r0, r4
  107bc8:	e0a71005 	adc	r1, r7, r5
  107bcc:	fa00242c 	blx	110c84 <__aeabi_ldivmod>
  107bd0:	e8bd81f0 	pop	{r4, r5, r6, r7, r8, pc}
  107bd4:	e092400c 	adds	r4, r2, ip
  107bd8:	e2a35000 	adc	r5, r3, #0
  107bdc:	e1b050c5 	asrs	r5, r5, #1
  107be0:	e1a04064 	rrx	r4, r4
  107be4:	e0500004 	subs	r0, r0, r4
  107be8:	e0c71005 	sbc	r1, r7, r5
  107bec:	fa002424 	blx	110c84 <__aeabi_ldivmod>
  107bf0:	e8bd81f0 	pop	{r4, r5, r6, r7, r8, pc}

00107bf4 <ada__real_time__seconds>:
  107bf4:	e3a03db5 	mov	r3, #11584	; 0x2d40
  107bf8:	e34133d9 	movt	r3, #5081	; 0x13d9
  107bfc:	e0c10390 	smull	r0, r1, r0, r3
  107c00:	e12fff1e 	bx	lr
  107c04:	00000000 	andeq	r0, r0, r0

00107c08 <ada__real_time__split>:
  107c08:	e92d4df0 	push	{r4, r5, r6, r7, r8, sl, fp, lr}
  107c0c:	e1a06002 	mov	r6, r2
  107c10:	e1a07003 	mov	r7, r3
  107c14:	e1a04000 	mov	r4, r0
  107c18:	e1a01007 	mov	r1, r7
  107c1c:	e28f3084 	add	r3, pc, #132	; 0x84
  107c20:	e1c320d0 	ldrd	r2, [r3]
  107c24:	e1a00006 	mov	r0, r6
  107c28:	fa00243d 	blx	110d24 <__aeabi_uldivmod>
  107c2c:	e1a05001 	mov	r5, r1
  107c30:	e3a01db5 	mov	r1, #11584	; 0x2d40
  107c34:	e34113d9 	movt	r1, #5081	; 0x13d9
  107c38:	e1a08000 	mov	r8, r0
  107c3c:	e08ba198 	umull	sl, fp, r8, r1
  107c40:	e02bb591 	mla	fp, r1, r5, fp
  107c44:	e15b0007 	cmp	fp, r7
  107c48:	015a0006 	cmpeq	sl, r6
  107c4c:	9a00000b 	bls	107c80 <ada__real_time__split+0x78>
  107c50:	e05a2006 	subs	r2, sl, r6
  107c54:	e0cb3007 	sbc	r3, fp, r7
  107c58:	e3530102 	cmp	r3, #-2147483648	; 0x80000000
  107c5c:	03520000 	cmpeq	r2, #0
  107c60:	8a00000c 	bhi	107c98 <ada__real_time__split+0x90>
  107c64:	e2722000 	rsbs	r2, r2, #0
  107c68:	e2e33000 	rsc	r3, r3, #0
  107c6c:	e5848000 	str	r8, [r4]
  107c70:	e5845004 	str	r5, [r4, #4]
  107c74:	e1c420f8 	strd	r2, [r4, #8]
  107c78:	e1a00004 	mov	r0, r4
  107c7c:	e8bd8df0 	pop	{r4, r5, r6, r7, r8, sl, fp, pc}
  107c80:	e1a00006 	mov	r0, r6
  107c84:	e1a01007 	mov	r1, r7
  107c88:	e28f3018 	add	r3, pc, #24
  107c8c:	e1c320d0 	ldrd	r2, [r3]
  107c90:	fa002423 	blx	110d24 <__aeabi_uldivmod>
  107c94:	eafffff4 	b	107c6c <ada__real_time__split+0x64>
  107c98:	e30209b0 	movw	r0, #10672	; 0x29b0
  107c9c:	e3001111 	movw	r1, #273	; 0x111
  107ca0:	e3400011 	movt	r0, #17
  107ca4:	ebfffa86 	bl	1066c4 <__gnat_rcheck_CE_Explicit_Raise>
  107ca8:	13d92d40 	bicsne	r2, r9, #64, 26	; 0x1000
  107cac:	00000000 	andeq	r0, r0, r0

00107cb0 <ada__real_time__time_of>:
  107cb0:	e92d4ff0 	push	{r4, r5, r6, r7, r8, r9, sl, fp, lr}
  107cb4:	e24dd004 	sub	sp, sp, #4
  107cb8:	e3520000 	cmp	r2, #0
  107cbc:	e1a09001 	mov	r9, r1
  107cc0:	e2d31000 	sbcs	r1, r3, #0
  107cc4:	e1a08000 	mov	r8, r0
  107cc8:	ba00000b 	blt	107cfc <ada__real_time__time_of+0x4c>
  107ccc:	e28f1f4d 	add	r1, pc, #308	; 0x134
  107cd0:	e1c100d0 	ldrd	r0, [r1]
  107cd4:	e1590001 	cmp	r9, r1
  107cd8:	01580000 	cmpeq	r8, r0
  107cdc:	8a000041 	bhi	107de8 <ada__real_time__time_of+0x138>
  107ce0:	e3a0cdb5 	mov	ip, #11584	; 0x2d40
  107ce4:	e341c3d9 	movt	ip, #5081	; 0x13d9
  107ce8:	e0810c98 	umull	r0, r1, r8, ip
  107cec:	e021199c 	mla	r1, ip, r9, r1
  107cf0:	e28dd004 	add	sp, sp, #4
  107cf4:	e8bd4ff0 	pop	{r4, r5, r6, r7, r8, r9, sl, fp, lr}
  107cf8:	eafffe7c 	b	1076f0 <ada__real_time__Oadd>
  107cfc:	e1a06002 	mov	r6, r2
  107d00:	e1a07003 	mov	r7, r3
  107d04:	e1a00006 	mov	r0, r6
  107d08:	e28f3c01 	add	r3, pc, #256	; 0x100
  107d0c:	e1c320d0 	ldrd	r2, [r3]
  107d10:	e1a01007 	mov	r1, r7
  107d14:	e3a05000 	mov	r5, #0
  107d18:	fa0023d9 	blx	110c84 <__aeabi_ldivmod>
  107d1c:	e1923003 	orrs	r3, r2, r3
  107d20:	e1a00006 	mov	r0, r6
  107d24:	e28f30e4 	add	r3, pc, #228	; 0xe4
  107d28:	e1c320d0 	ldrd	r2, [r3]
  107d2c:	13a04001 	movne	r4, #1
  107d30:	03a04000 	moveq	r4, #0
  107d34:	e1a01007 	mov	r1, r7
  107d38:	fa0023d1 	blx	110c84 <__aeabi_ldivmod>
  107d3c:	e3a0cdb5 	mov	ip, #11584	; 0x2d40
  107d40:	e0544000 	subs	r4, r4, r0
  107d44:	e0c55001 	sbc	r5, r5, r1
  107d48:	e341c3d9 	movt	ip, #5081	; 0x13d9
  107d4c:	e2542001 	subs	r2, r4, #1
  107d50:	e3a0a000 	mov	sl, #0
  107d54:	e0810c92 	umull	r0, r1, r2, ip
  107d58:	e2c53000 	sbc	r3, r5, #0
  107d5c:	e3a0b000 	mov	fp, #0
  107d60:	e021139c 	mla	r1, ip, r3, r1
  107d64:	e0962000 	adds	r2, r6, r0
  107d68:	e0b73001 	adcs	r3, r7, r1
  107d6c:	63a0a001 	movvs	sl, #1
  107d70:	63a0b000 	movvs	fp, #0
  107d74:	e19a100b 	orrs	r1, sl, fp
  107d78:	1a00001e 	bne	107df8 <ada__real_time__time_of+0x148>
  107d7c:	e28f108c 	add	r1, pc, #140	; 0x8c
  107d80:	e1c100d0 	ldrd	r0, [r1]
  107d84:	ebfffe59 	bl	1076f0 <ada__real_time__Oadd>
  107d88:	e1580004 	cmp	r8, r4
  107d8c:	e0d93005 	sbcs	r3, r9, r5
  107d90:	ba000010 	blt	107dd8 <ada__real_time__time_of+0x128>
  107d94:	e28f306c 	add	r3, pc, #108	; 0x6c
  107d98:	e1c320d0 	ldrd	r2, [r3]
  107d9c:	e0584004 	subs	r4, r8, r4
  107da0:	e0c95005 	sbc	r5, r9, r5
  107da4:	e1520004 	cmp	r2, r4
  107da8:	e0d33005 	sbcs	r3, r3, r5
  107dac:	ba000009 	blt	107dd8 <ada__real_time__time_of+0x128>
  107db0:	e3a0cdb5 	mov	ip, #11584	; 0x2d40
  107db4:	e341c3d9 	movt	ip, #5081	; 0x13d9
  107db8:	e0832c94 	umull	r2, r3, r4, ip
  107dbc:	e023359c 	mla	r3, ip, r5, r3
  107dc0:	e0904002 	adds	r4, r0, r2
  107dc4:	e0a15003 	adc	r5, r1, r3
  107dc8:	e1a00004 	mov	r0, r4
  107dcc:	e1a01005 	mov	r1, r5
  107dd0:	e28dd004 	add	sp, sp, #4
  107dd4:	e8bd8ff0 	pop	{r4, r5, r6, r7, r8, r9, sl, fp, pc}
  107dd8:	e30209b0 	movw	r0, #10672	; 0x29b0
  107ddc:	e3001243 	movw	r1, #579	; 0x243
  107de0:	e3400011 	movt	r0, #17
  107de4:	ebfffa36 	bl	1066c4 <__gnat_rcheck_CE_Explicit_Raise>
  107de8:	e30209b0 	movw	r0, #10672	; 0x29b0
  107dec:	e3a01f93 	mov	r1, #588	; 0x24c
  107df0:	e3400011 	movt	r0, #17
  107df4:	ebfffa32 	bl	1066c4 <__gnat_rcheck_CE_Explicit_Raise>
  107df8:	e30209b0 	movw	r0, #10672	; 0x29b0
  107dfc:	e3a010db 	mov	r1, #219	; 0xdb
  107e00:	e3400011 	movt	r0, #17
  107e04:	ebfffa4c 	bl	10673c <__gnat_rcheck_CE_Overflow_Check>
  107e08:	e5d63348 	ldrb	r3, [r6, #840]	; 0x348
  107e0c:	0000000c 	andeq	r0, r0, ip
  107e10:	13d92d40 	bicsne	r2, r9, #64, 26	; 0x1000
  107e14:	00000000 	andeq	r0, r0, r0

00107e18 <ada__real_time__to_duration>:
  107e18:	e3a03db5 	mov	r3, #11584	; 0x2d40
  107e1c:	e3a02cca 	mov	r2, #51712	; 0xca00
  107e20:	e34133d9 	movt	r3, #5081	; 0x13d9
  107e24:	e3432b9a 	movt	r2, #15258	; 0x3b9a
  107e28:	eafffd8a 	b	107458 <ada__real_time__mul_div>

00107e2c <ada__real_time__to_time_span>:
  107e2c:	e3a03cca 	mov	r3, #51712	; 0xca00
  107e30:	e3a02db5 	mov	r2, #11584	; 0x2d40
  107e34:	e3433b9a 	movt	r3, #15258	; 0x3b9a
  107e38:	e34123d9 	movt	r2, #5081	; 0x13d9
  107e3c:	eafffd85 	b	107458 <ada__real_time__mul_div>

00107e40 <ada__real_time___elabb>:
  107e40:	ea0013ef 	b	10ce04 <system__tasking__initialize>

00107e44 <ada__real_time__delays__delay_until>:
  107e44:	e92d4010 	push	{r4, lr}
  107e48:	e30433c4 	movw	r3, #17348	; 0x43c4
  107e4c:	e3403011 	movt	r3, #17
  107e50:	e5932000 	ldr	r2, [r3]
  107e54:	e59220a8 	ldr	r2, [r2, #168]	; 0xa8
  107e58:	e5922010 	ldr	r2, [r2, #16]
  107e5c:	e3520000 	cmp	r2, #0
  107e60:	ca000007 	bgt	107e84 <ada__real_time__delays__delay_until+0x40>
  107e64:	e5932000 	ldr	r2, [r3]
  107e68:	e3a03007 	mov	r3, #7
  107e6c:	e59240a8 	ldr	r4, [r2, #168]	; 0xa8
  107e70:	e5c43008 	strb	r3, [r4, #8]
  107e74:	eb000d62 	bl	10b404 <system__bb__time__delay_until>
  107e78:	e3a03001 	mov	r3, #1
  107e7c:	e5c43008 	strb	r3, [r4, #8]
  107e80:	e8bd8010 	pop	{r4, pc}
  107e84:	e3020a00 	movw	r0, #10752	; 0x2a00
  107e88:	e3a01033 	mov	r1, #51	; 0x33
  107e8c:	e3400011 	movt	r0, #17
  107e90:	ebfffa61 	bl	10681c <__gnat_rcheck_PE_Explicit_Raise>

00107e94 <ada__real_time__delays__to_duration>:
  107e94:	e3a00000 	mov	r0, #0
  107e98:	e3a01000 	mov	r1, #0
  107e9c:	e12fff1e 	bx	lr

00107ea0 <ada__tags__iw_membership__2>:
  107ea0:	e590c020 	ldr	ip, [r0, #32]
  107ea4:	e35c0000 	cmp	ip, #0
  107ea8:	0a000019 	beq	107f14 <ada__tags__iw_membership__2+0x74>
  107eac:	e52de004 	push	{lr}		; (str lr, [sp, #-4]!)
  107eb0:	e3a03000 	mov	r3, #0
  107eb4:	e59ce000 	ldr	lr, [ip]
  107eb8:	ea000001 	b	107ec4 <ada__tags__iw_membership__2+0x24>
  107ebc:	e15e0003 	cmp	lr, r3
  107ec0:	0a000007 	beq	107ee4 <ada__tags__iw_membership__2+0x44>
  107ec4:	e2833001 	add	r3, r3, #1
  107ec8:	e0832103 	add	r2, r3, r3, lsl #2
  107ecc:	e08c2102 	add	r2, ip, r2, lsl #2
  107ed0:	e5122010 	ldr	r2, [r2, #-16]
  107ed4:	e1520001 	cmp	r2, r1
  107ed8:	1afffff7 	bne	107ebc <ada__tags__iw_membership__2+0x1c>
  107edc:	e3a00001 	mov	r0, #1
  107ee0:	e49df004 	pop	{pc}		; (ldr pc, [sp], #4)
  107ee4:	e3e03000 	mvn	r3, #0
  107ee8:	e490c024 	ldr	ip, [r0], #36	; 0x24
  107eec:	ea000001 	b	107ef8 <ada__tags__iw_membership__2+0x58>
  107ef0:	e15c0003 	cmp	ip, r3
  107ef4:	0a000004 	beq	107f0c <ada__tags__iw_membership__2+0x6c>
  107ef8:	e5b02004 	ldr	r2, [r0, #4]!
  107efc:	e2833001 	add	r3, r3, #1
  107f00:	e1510002 	cmp	r1, r2
  107f04:	1afffff9 	bne	107ef0 <ada__tags__iw_membership__2+0x50>
  107f08:	eafffff3 	b	107edc <ada__tags__iw_membership__2+0x3c>
  107f0c:	e3a00000 	mov	r0, #0
  107f10:	e49df004 	pop	{pc}		; (ldr pc, [sp], #4)
  107f14:	e3e03000 	mvn	r3, #0
  107f18:	e490c024 	ldr	ip, [r0], #36	; 0x24
  107f1c:	ea000001 	b	107f28 <ada__tags__iw_membership__2+0x88>
  107f20:	e15c0003 	cmp	ip, r3
  107f24:	0a000005 	beq	107f40 <ada__tags__iw_membership__2+0xa0>
  107f28:	e5b02004 	ldr	r2, [r0, #4]!
  107f2c:	e2833001 	add	r3, r3, #1
  107f30:	e1510002 	cmp	r1, r2
  107f34:	1afffff9 	bne	107f20 <ada__tags__iw_membership__2+0x80>
  107f38:	e3a00001 	mov	r0, #1
  107f3c:	e12fff1e 	bx	lr
  107f40:	e3a00000 	mov	r0, #0
  107f44:	eafffffc 	b	107f3c <ada__tags__iw_membership__2+0x9c>

00107f48 <ada__tags__tag_arrayIP>:
  107f48:	e591c000 	ldr	ip, [r1]
  107f4c:	e5913004 	ldr	r3, [r1, #4]
  107f50:	e15c0003 	cmp	ip, r3
  107f54:	ca000008 	bgt	107f7c <ada__tags__tag_arrayIP+0x34>
  107f58:	e2832001 	add	r2, r3, #1
  107f5c:	e3a03000 	mov	r3, #0
  107f60:	e042200c 	sub	r2, r2, ip
  107f64:	e2400004 	sub	r0, r0, #4
  107f68:	e1a01003 	mov	r1, r3
  107f6c:	e2833001 	add	r3, r3, #1
  107f70:	e5a01004 	str	r1, [r0, #4]!
  107f74:	e1530002 	cmp	r3, r2
  107f78:	1afffffb 	bne	107f6c <ada__tags__tag_arrayIP+0x24>
  107f7c:	e12fff1e 	bx	lr

00107f80 <ada__tags__interface_data_elementIP>:
  107f80:	e3a03000 	mov	r3, #0
  107f84:	e580300c 	str	r3, [r0, #12]
  107f88:	e12fff1e 	bx	lr

00107f8c <ada__tags__interfaces_arrayIP>:
  107f8c:	e591c000 	ldr	ip, [r1]
  107f90:	e5911004 	ldr	r1, [r1, #4]
  107f94:	e15c0001 	cmp	ip, r1
  107f98:	ca00000a 	bgt	107fc8 <ada__tags__interfaces_arrayIP+0x3c>
  107f9c:	e52de004 	push	{lr}		; (str lr, [sp, #-4]!)
  107fa0:	e3a0e000 	mov	lr, #0
  107fa4:	e24c2001 	sub	r2, ip, #1
  107fa8:	e2822001 	add	r2, r2, #1
  107fac:	e042300c 	sub	r3, r2, ip
  107fb0:	e1520001 	cmp	r2, r1
  107fb4:	e0833103 	add	r3, r3, r3, lsl #2
  107fb8:	e0803103 	add	r3, r0, r3, lsl #2
  107fbc:	e583e00c 	str	lr, [r3, #12]
  107fc0:	1afffff8 	bne	107fa8 <ada__tags__interfaces_arrayIP+0x1c>
  107fc4:	e49df004 	pop	{pc}		; (ldr pc, [sp], #4)
  107fc8:	e12fff1e 	bx	lr

00107fcc <ada__tags__interface_dataIP>:
  107fcc:	e3510000 	cmp	r1, #0
  107fd0:	e5801000 	str	r1, [r0]
  107fd4:	da000007 	ble	107ff8 <ada__tags__interface_dataIP+0x2c>
  107fd8:	e3a03000 	mov	r3, #0
  107fdc:	e1a0c003 	mov	ip, r3
  107fe0:	e2833001 	add	r3, r3, #1
  107fe4:	e0832103 	add	r2, r3, r3, lsl #2
  107fe8:	e1510003 	cmp	r1, r3
  107fec:	e0802102 	add	r2, r0, r2, lsl #2
  107ff0:	e502c004 	str	ip, [r2, #-4]
  107ff4:	1afffff9 	bne	107fe0 <ada__tags__interface_dataIP+0x14>
  107ff8:	e12fff1e 	bx	lr

00107ffc <ada__tags__select_specific_data_elementIP>:
  107ffc:	e12fff1e 	bx	lr

00108000 <ada__tags__select_specific_data_arrayIP>:
  108000:	e12fff1e 	bx	lr

00108004 <ada__tags__select_specific_dataIP>:
  108004:	e5801000 	str	r1, [r0]
  108008:	e12fff1e 	bx	lr

0010800c <ada__tags__address_arrayIP>:
  10800c:	e591c000 	ldr	ip, [r1]
  108010:	e5913004 	ldr	r3, [r1, #4]
  108014:	e15c0003 	cmp	ip, r3
  108018:	ca000008 	bgt	108040 <ada__tags__address_arrayIP+0x34>
  10801c:	e2832001 	add	r2, r3, #1
  108020:	e3a03000 	mov	r3, #0
  108024:	e042200c 	sub	r2, r2, ip
  108028:	e2400004 	sub	r0, r0, #4
  10802c:	e1a01003 	mov	r1, r3
  108030:	e2833001 	add	r3, r3, #1
  108034:	e5a01004 	str	r1, [r0, #4]!
  108038:	e1530002 	cmp	r3, r2
  10803c:	1afffffb 	bne	108030 <ada__tags__address_arrayIP+0x24>
  108040:	e12fff1e 	bx	lr

00108044 <ada__tags__tag_tableIP>:
  108044:	e591c000 	ldr	ip, [r1]
  108048:	e5913004 	ldr	r3, [r1, #4]
  10804c:	e15c0003 	cmp	ip, r3
  108050:	ca000008 	bgt	108078 <ada__tags__tag_tableIP+0x34>
  108054:	e2832001 	add	r2, r3, #1
  108058:	e3a03000 	mov	r3, #0
  10805c:	e042200c 	sub	r2, r2, ip
  108060:	e2400004 	sub	r0, r0, #4
  108064:	e1a01003 	mov	r1, r3
  108068:	e2833001 	add	r3, r3, #1
  10806c:	e5a01004 	str	r1, [r0, #4]!
  108070:	e1530002 	cmp	r3, r2
  108074:	1afffffb 	bne	108068 <ada__tags__tag_tableIP+0x24>
  108078:	e12fff1e 	bx	lr

0010807c <ada__tags__type_specific_dataIP>:
  10807c:	e3510000 	cmp	r1, #0
  108080:	e3a03000 	mov	r3, #0
  108084:	e5801000 	str	r1, [r0]
  108088:	e580300c 	str	r3, [r0, #12]
  10808c:	e5803010 	str	r3, [r0, #16]
  108090:	e5803014 	str	r3, [r0, #20]
  108094:	e580301c 	str	r3, [r0, #28]
  108098:	e5803020 	str	r3, [r0, #32]
  10809c:	e5803024 	str	r3, [r0, #36]	; 0x24
  1080a0:	ba000006 	blt	1080c0 <ada__tags__type_specific_dataIP+0x44>
  1080a4:	e2800024 	add	r0, r0, #36	; 0x24
  1080a8:	e2811001 	add	r1, r1, #1
  1080ac:	e1a02003 	mov	r2, r3
  1080b0:	e2833001 	add	r3, r3, #1
  1080b4:	e5a02004 	str	r2, [r0, #4]!
  1080b8:	e1530001 	cmp	r3, r1
  1080bc:	1afffffb 	bne	1080b0 <ada__tags__type_specific_dataIP+0x34>
  1080c0:	e12fff1e 	bx	lr

001080c4 <ada__tags__dispatch_table_wrapperIP>:
  1080c4:	e3510000 	cmp	r1, #0
  1080c8:	e5801000 	str	r1, [r0]
  1080cc:	da000006 	ble	1080ec <ada__tags__dispatch_table_wrapperIP+0x28>
  1080d0:	e3a03000 	mov	r3, #0
  1080d4:	e2800010 	add	r0, r0, #16
  1080d8:	e1a02003 	mov	r2, r3
  1080dc:	e2833001 	add	r3, r3, #1
  1080e0:	e5a02004 	str	r2, [r0, #4]!
  1080e4:	e1510003 	cmp	r1, r3
  1080e8:	1afffffb 	bne	1080dc <ada__tags__dispatch_table_wrapperIP+0x18>
  1080ec:	e12fff1e 	bx	lr

001080f0 <ada__tags__no_dispatch_table_wrapperIP>:
  1080f0:	e12fff1e 	bx	lr

001080f4 <ada__tags__object_specific_data_arrayIP>:
  1080f4:	e12fff1e 	bx	lr

001080f8 <ada__tags__object_specific_dataIP>:
  1080f8:	e5801000 	str	r1, [r0]
  1080fc:	e12fff1e 	bx	lr

00108100 <ada__tags__external_tag_htable__TtableBIPXn>:
  108100:	e1d130d0 	ldrsb	r3, [r1]
  108104:	e1d120d1 	ldrsb	r2, [r1, #1]
  108108:	e1530002 	cmp	r3, r2
  10810c:	ca000005 	bgt	108128 <ada__tags__external_tag_htable__TtableBIPXn+0x28>
  108110:	e2433001 	sub	r3, r3, #1
  108114:	e3a01000 	mov	r1, #0
  108118:	e2833001 	add	r3, r3, #1
  10811c:	e4801004 	str	r1, [r0], #4
  108120:	e1530002 	cmp	r3, r2
  108124:	1afffffb 	bne	108118 <ada__tags__external_tag_htable__TtableBIPXn+0x18>
  108128:	e12fff1e 	bx	lr

0010812c <ada__tags__external_tag_htable__get_firstXn>:
  10812c:	e92d4010 	push	{r4, lr}
  108130:	e30c213c 	movw	r2, #49468	; 0xc13c
  108134:	e304c39c 	movw	ip, #17308	; 0x439c
  108138:	e3402011 	movt	r2, #17
  10813c:	e30443a0 	movw	r4, #17312	; 0x43a0
  108140:	e5920000 	ldr	r0, [r2]
  108144:	e30ce138 	movw	lr, #49464	; 0xc138
  108148:	e3a03001 	mov	r3, #1
  10814c:	e340c011 	movt	ip, #17
  108150:	e3404011 	movt	r4, #17
  108154:	e340e011 	movt	lr, #17
  108158:	e3500000 	cmp	r0, #0
  10815c:	e5c43000 	strb	r3, [r4]
  108160:	e5ce3000 	strb	r3, [lr]
  108164:	03a03002 	moveq	r3, #2
  108168:	e58c0000 	str	r0, [ip]
  10816c:	0a000002 	beq	10817c <ada__tags__external_tag_htable__get_firstXn+0x50>
  108170:	ea000008 	b	108198 <ada__tags__external_tag_htable__get_firstXn+0x6c>
  108174:	e3530041 	cmp	r3, #65	; 0x41
  108178:	0a000007 	beq	10819c <ada__tags__external_tag_htable__get_firstXn+0x70>
  10817c:	e5b20004 	ldr	r0, [r2, #4]!
  108180:	e6af1073 	sxtb	r1, r3
  108184:	e2833001 	add	r3, r3, #1
  108188:	e3500000 	cmp	r0, #0
  10818c:	0afffff8 	beq	108174 <ada__tags__external_tag_htable__get_firstXn+0x48>
  108190:	e5ce1000 	strb	r1, [lr]
  108194:	e58c0000 	str	r0, [ip]
  108198:	e8bd8010 	pop	{r4, pc}
  10819c:	e5ce1000 	strb	r1, [lr]
  1081a0:	e58c0000 	str	r0, [ip]
  1081a4:	e5c40000 	strb	r0, [r4]
  1081a8:	e8bd8010 	pop	{r4, pc}

001081ac <ada__tags__external_tag_htable__get_nextXn>:
  1081ac:	e92d4010 	push	{r4, lr}
  1081b0:	e304e3a0 	movw	lr, #17312	; 0x43a0
  1081b4:	e340e011 	movt	lr, #17
  1081b8:	e5de0000 	ldrb	r0, [lr]
  1081bc:	e3500000 	cmp	r0, #0
  1081c0:	0a00001c 	beq	108238 <ada__tags__external_tag_htable__get_nextXn+0x8c>
  1081c4:	e304c39c 	movw	ip, #17308	; 0x439c
  1081c8:	e340c011 	movt	ip, #17
  1081cc:	e59c3000 	ldr	r3, [ip]
  1081d0:	e5133004 	ldr	r3, [r3, #-4]
  1081d4:	e5933014 	ldr	r3, [r3, #20]
  1081d8:	e5930000 	ldr	r0, [r3]
  1081dc:	e3500000 	cmp	r0, #0
  1081e0:	e58c0000 	str	r0, [ip]
  1081e4:	1a000013 	bne	108238 <ada__tags__external_tag_htable__get_nextXn+0x8c>
  1081e8:	e30c4138 	movw	r4, #49464	; 0xc138
  1081ec:	e3404011 	movt	r4, #17
  1081f0:	e1d430d0 	ldrsb	r3, [r4]
  1081f4:	e3530040 	cmp	r3, #64	; 0x40
  1081f8:	0a000011 	beq	108244 <ada__tags__external_tag_htable__get_nextXn+0x98>
  1081fc:	e30c213c 	movw	r2, #49468	; 0xc13c
  108200:	e3402011 	movt	r2, #17
  108204:	e0822103 	add	r2, r2, r3, lsl #2
  108208:	e2422004 	sub	r2, r2, #4
  10820c:	ea000001 	b	108218 <ada__tags__external_tag_htable__get_nextXn+0x6c>
  108210:	e3530040 	cmp	r3, #64	; 0x40
  108214:	0a000008 	beq	10823c <ada__tags__external_tag_htable__get_nextXn+0x90>
  108218:	e5b21004 	ldr	r1, [r2, #4]!
  10821c:	e2833001 	add	r3, r3, #1
  108220:	e6af3073 	sxtb	r3, r3
  108224:	e3510000 	cmp	r1, #0
  108228:	0afffff8 	beq	108210 <ada__tags__external_tag_htable__get_nextXn+0x64>
  10822c:	e1a00001 	mov	r0, r1
  108230:	e5c43000 	strb	r3, [r4]
  108234:	e58c1000 	str	r1, [ip]
  108238:	e8bd8010 	pop	{r4, pc}
  10823c:	e5c43000 	strb	r3, [r4]
  108240:	e58c1000 	str	r1, [ip]
  108244:	e3a03000 	mov	r3, #0
  108248:	e5ce3000 	strb	r3, [lr]
  10824c:	e8bd8010 	pop	{r4, pc}

00108250 <ada__tags__external_tag_htable__get_non_nullXn>:
  108250:	e304c39c 	movw	ip, #17308	; 0x439c
  108254:	e340c011 	movt	ip, #17
  108258:	e59c0000 	ldr	r0, [ip]
  10825c:	e3500000 	cmp	r0, #0
  108260:	1a00001c 	bne	1082d8 <ada__tags__external_tag_htable__get_non_nullXn+0x88>
  108264:	e52de004 	push	{lr}		; (str lr, [sp, #-4]!)
  108268:	e30ce138 	movw	lr, #49464	; 0xc138
  10826c:	e340e011 	movt	lr, #17
  108270:	e1de30d0 	ldrsb	r3, [lr]
  108274:	e3530040 	cmp	r3, #64	; 0x40
  108278:	0a000011 	beq	1082c4 <ada__tags__external_tag_htable__get_non_nullXn+0x74>
  10827c:	e30c213c 	movw	r2, #49468	; 0xc13c
  108280:	e3402011 	movt	r2, #17
  108284:	e0822103 	add	r2, r2, r3, lsl #2
  108288:	e2422004 	sub	r2, r2, #4
  10828c:	ea000001 	b	108298 <ada__tags__external_tag_htable__get_non_nullXn+0x48>
  108290:	e3530040 	cmp	r3, #64	; 0x40
  108294:	0a000008 	beq	1082bc <ada__tags__external_tag_htable__get_non_nullXn+0x6c>
  108298:	e5b21004 	ldr	r1, [r2, #4]!
  10829c:	e2833001 	add	r3, r3, #1
  1082a0:	e6af3073 	sxtb	r3, r3
  1082a4:	e3510000 	cmp	r1, #0
  1082a8:	0afffff8 	beq	108290 <ada__tags__external_tag_htable__get_non_nullXn+0x40>
  1082ac:	e1a00001 	mov	r0, r1
  1082b0:	e5ce3000 	strb	r3, [lr]
  1082b4:	e58c1000 	str	r1, [ip]
  1082b8:	e49df004 	pop	{pc}		; (ldr pc, [sp], #4)
  1082bc:	e5ce3000 	strb	r3, [lr]
  1082c0:	e58c1000 	str	r1, [ip]
  1082c4:	e30433a0 	movw	r3, #17312	; 0x43a0
  1082c8:	e3a02000 	mov	r2, #0
  1082cc:	e3403011 	movt	r3, #17
  1082d0:	e5c32000 	strb	r2, [r3]
  1082d4:	e49df004 	pop	{pc}		; (ldr pc, [sp], #4)
  1082d8:	e12fff1e 	bx	lr

001082dc <ada__tags__external_tag_htable__resetXn>:
  1082dc:	e92d4010 	push	{r4, lr}
  1082e0:	e30c013c 	movw	r0, #49468	; 0xc13c
  1082e4:	e3a02c01 	mov	r2, #256	; 0x100
  1082e8:	e3a01000 	mov	r1, #0
  1082ec:	e3400011 	movt	r0, #17
  1082f0:	fa001fe3 	blx	110284 <memset>
  1082f4:	e8bd8010 	pop	{r4, pc}

001082f8 <ada__tags__htable_subprograms__equalXn>:
  1082f8:	e5d03000 	ldrb	r3, [r0]
  1082fc:	e5d12000 	ldrb	r2, [r1]
  108300:	e1530002 	cmp	r3, r2
  108304:	0a000004 	beq	10831c <ada__tags__htable_subprograms__equalXn+0x24>
  108308:	ea000007 	b	10832c <ada__tags__htable_subprograms__equalXn+0x34>
  10830c:	e5f03001 	ldrb	r3, [r0, #1]!
  108310:	e5f12001 	ldrb	r2, [r1, #1]!
  108314:	e1530002 	cmp	r3, r2
  108318:	1a000003 	bne	10832c <ada__tags__htable_subprograms__equalXn+0x34>
  10831c:	e3530000 	cmp	r3, #0
  108320:	1afffff9 	bne	10830c <ada__tags__htable_subprograms__equalXn+0x14>
  108324:	e3a00001 	mov	r0, #1
  108328:	e12fff1e 	bx	lr
  10832c:	e3a00000 	mov	r0, #0
  108330:	e12fff1e 	bx	lr

00108334 <ada__tags__htable_subprograms__get_ht_linkXn>:
  108334:	e5103004 	ldr	r3, [r0, #-4]
  108338:	e5933014 	ldr	r3, [r3, #20]
  10833c:	e5930000 	ldr	r0, [r3]
  108340:	e12fff1e 	bx	lr

00108344 <ada__tags__htable_subprograms__hashXn>:
  108344:	e92d4010 	push	{r4, lr}
  108348:	e5d04000 	ldrb	r4, [r0]
  10834c:	e3540000 	cmp	r4, #0
  108350:	03a00001 	moveq	r0, #1
  108354:	0a000013 	beq	1083a8 <ada__tags__htable_subprograms__hashXn+0x64>
  108358:	e1a01000 	mov	r1, r0
  10835c:	e3a0c001 	mov	ip, #1
  108360:	ea000000 	b	108368 <ada__tags__htable_subprograms__hashXn+0x24>
  108364:	e1a0c00e 	mov	ip, lr
  108368:	e5f13001 	ldrb	r3, [r1, #1]!
  10836c:	e28ce001 	add	lr, ip, #1
  108370:	e3530000 	cmp	r3, #0
  108374:	1afffffa 	bne	108364 <ada__tags__htable_subprograms__hashXn+0x20>
  108378:	e2402001 	sub	r2, r0, #1
  10837c:	e082c00c 	add	ip, r2, ip
  108380:	ea000000 	b	108388 <ada__tags__htable_subprograms__hashXn+0x44>
  108384:	e5f04001 	ldrb	r4, [r0, #1]!
  108388:	e1a02803 	lsl	r2, r3, #16
  10838c:	e150000c 	cmp	r0, ip
  108390:	e0822303 	add	r2, r2, r3, lsl #6
  108394:	e0822004 	add	r2, r2, r4
  108398:	e0423003 	sub	r3, r2, r3
  10839c:	1afffff8 	bne	108384 <ada__tags__htable_subprograms__hashXn+0x40>
  1083a0:	e203003f 	and	r0, r3, #63	; 0x3f
  1083a4:	e2800001 	add	r0, r0, #1
  1083a8:	e8bd8010 	pop	{r4, pc}

001083ac <ada__tags__external_tag_htable__getXn>:
  1083ac:	e92d4070 	push	{r4, r5, r6, lr}
  1083b0:	e1a05000 	mov	r5, r0
  1083b4:	ebffffe2 	bl	108344 <ada__tags__htable_subprograms__hashXn>
  1083b8:	e30c313c 	movw	r3, #49468	; 0xc13c
